
./target/iso/boot/sos2.bin:     file format elf32-i386


Disassembly of section .zoubida:

00200000 <header_start>:
  200000:	d6                   	(bad)
  200001:	50                   	push   %eax
  200002:	52                   	push   %edx
  200003:	e8 00 00 00 00       	call   200008 <header_start+0x8>
  200008:	18 00                	sbb    %al,(%eax)
  20000a:	00 00                	add    %al,(%eax)
  20000c:	12 af ad 17 00 00    	adc    0x17ad(%edi),%ch
  200012:	00 00                	add    %al,(%eax)
  200014:	08 00                	or     %al,(%eax)
	...

Disassembly of section .text:

00201000 <start>:
  201000:	bc 00 90 20 00       	mov    $0x209000,%esp
  201005:	6a 00                	push   $0x0
  201007:	9d                   	popf
  201008:	53                   	push   %ebx
  201009:	50                   	push   %eax
  20100a:	e8 b4 1d 00 00       	call   202dc3 <sos_main>
  20100f:	f4                   	hlt

00201010 <sos_bochs_setup>:
  201010:	55                   	push   %ebp
  201011:	89 e5                	mov    %esp,%ebp
  201013:	b8 00 00 00 00       	mov    $0x0,%eax
  201018:	5d                   	pop    %ebp
  201019:	c3                   	ret

0020101a <sos_bochs_putstring>:
  20101a:	55                   	push   %ebp
  20101b:	89 e5                	mov    %esp,%ebp
  20101d:	eb 0c                	jmp    20102b <sos_bochs_putstring+0x11>
  20101f:	8b 45 08             	mov    0x8(%ebp),%eax
  201022:	0f b6 00             	movzbl (%eax),%eax
  201025:	e6 e9                	out    %al,$0xe9
  201027:	83 45 08 01          	addl   $0x1,0x8(%ebp)
  20102b:	83 7d 08 00          	cmpl   $0x0,0x8(%ebp)
  20102f:	74 0a                	je     20103b <sos_bochs_putstring+0x21>
  201031:	8b 45 08             	mov    0x8(%ebp),%eax
  201034:	0f b6 00             	movzbl (%eax),%eax
  201037:	84 c0                	test   %al,%al
  201039:	75 e4                	jne    20101f <sos_bochs_putstring+0x5>
  20103b:	b8 00 00 00 00       	mov    $0x0,%eax
  201040:	5d                   	pop    %ebp
  201041:	c3                   	ret

00201042 <sos_bochs_puthex>:
  201042:	55                   	push   %ebp
  201043:	89 e5                	mov    %esp,%ebp
  201045:	83 ec 10             	sub    $0x10,%esp
  201048:	83 7d 0c 04          	cmpl   $0x4,0xc(%ebp)
  20104c:	74 37                	je     201085 <sos_bochs_puthex+0x43>
  20104e:	83 7d 0c 04          	cmpl   $0x4,0xc(%ebp)
  201052:	0f 8f d7 01 00 00    	jg     20122f <sos_bochs_puthex+0x1ed>
  201058:	83 7d 0c 03          	cmpl   $0x3,0xc(%ebp)
  20105c:	0f 84 8b 00 00 00    	je     2010ed <sos_bochs_puthex+0xab>
  201062:	83 7d 0c 03          	cmpl   $0x3,0xc(%ebp)
  201066:	0f 8f c3 01 00 00    	jg     20122f <sos_bochs_puthex+0x1ed>
  20106c:	83 7d 0c 01          	cmpl   $0x1,0xc(%ebp)
  201070:	0f 84 51 01 00 00    	je     2011c7 <sos_bochs_puthex+0x185>
  201076:	83 7d 0c 02          	cmpl   $0x2,0xc(%ebp)
  20107a:	0f 84 da 00 00 00    	je     20115a <sos_bochs_puthex+0x118>
  201080:	e9 aa 01 00 00       	jmp    20122f <sos_bochs_puthex+0x1ed>
  201085:	8b 45 08             	mov    0x8(%ebp),%eax
  201088:	c1 e8 18             	shr    $0x18,%eax
  20108b:	89 45 f4             	mov    %eax,-0xc(%ebp)
  20108e:	8b 45 f4             	mov    -0xc(%ebp),%eax
  201091:	c1 e8 04             	shr    $0x4,%eax
  201094:	83 e0 0f             	and    $0xf,%eax
  201097:	83 f8 09             	cmp    $0x9,%eax
  20109a:	76 11                	jbe    2010ad <sos_bochs_puthex+0x6b>
  20109c:	8b 45 f4             	mov    -0xc(%ebp),%eax
  20109f:	c1 e8 04             	shr    $0x4,%eax
  2010a2:	83 e0 0f             	and    $0xf,%eax
  2010a5:	83 c0 57             	add    $0x57,%eax
  2010a8:	88 45 ff             	mov    %al,-0x1(%ebp)
  2010ab:	eb 0f                	jmp    2010bc <sos_bochs_puthex+0x7a>
  2010ad:	8b 45 f4             	mov    -0xc(%ebp),%eax
  2010b0:	c1 e8 04             	shr    $0x4,%eax
  2010b3:	83 e0 0f             	and    $0xf,%eax
  2010b6:	83 c0 30             	add    $0x30,%eax
  2010b9:	88 45 ff             	mov    %al,-0x1(%ebp)
  2010bc:	0f b6 45 ff          	movzbl -0x1(%ebp),%eax
  2010c0:	e6 e9                	out    %al,$0xe9
  2010c2:	8b 45 f4             	mov    -0xc(%ebp),%eax
  2010c5:	83 e0 0f             	and    $0xf,%eax
  2010c8:	83 f8 09             	cmp    $0x9,%eax
  2010cb:	76 0e                	jbe    2010db <sos_bochs_puthex+0x99>
  2010cd:	8b 45 f4             	mov    -0xc(%ebp),%eax
  2010d0:	83 e0 0f             	and    $0xf,%eax
  2010d3:	83 c0 57             	add    $0x57,%eax
  2010d6:	88 45 fe             	mov    %al,-0x2(%ebp)
  2010d9:	eb 0c                	jmp    2010e7 <sos_bochs_puthex+0xa5>
  2010db:	8b 45 f4             	mov    -0xc(%ebp),%eax
  2010de:	83 e0 0f             	and    $0xf,%eax
  2010e1:	83 c0 30             	add    $0x30,%eax
  2010e4:	88 45 fe             	mov    %al,-0x2(%ebp)
  2010e7:	0f b6 45 fe          	movzbl -0x2(%ebp),%eax
  2010eb:	e6 e9                	out    %al,$0xe9
  2010ed:	8b 45 08             	mov    0x8(%ebp),%eax
  2010f0:	c1 e8 10             	shr    $0x10,%eax
  2010f3:	25 ff 00 00 00       	and    $0xff,%eax
  2010f8:	89 45 f4             	mov    %eax,-0xc(%ebp)
  2010fb:	8b 45 f4             	mov    -0xc(%ebp),%eax
  2010fe:	c1 e8 04             	shr    $0x4,%eax
  201101:	83 e0 0f             	and    $0xf,%eax
  201104:	83 f8 09             	cmp    $0x9,%eax
  201107:	76 11                	jbe    20111a <sos_bochs_puthex+0xd8>
  201109:	8b 45 f4             	mov    -0xc(%ebp),%eax
  20110c:	c1 e8 04             	shr    $0x4,%eax
  20110f:	83 e0 0f             	and    $0xf,%eax
  201112:	83 c0 57             	add    $0x57,%eax
  201115:	88 45 fd             	mov    %al,-0x3(%ebp)
  201118:	eb 0f                	jmp    201129 <sos_bochs_puthex+0xe7>
  20111a:	8b 45 f4             	mov    -0xc(%ebp),%eax
  20111d:	c1 e8 04             	shr    $0x4,%eax
  201120:	83 e0 0f             	and    $0xf,%eax
  201123:	83 c0 30             	add    $0x30,%eax
  201126:	88 45 fd             	mov    %al,-0x3(%ebp)
  201129:	0f b6 45 fd          	movzbl -0x3(%ebp),%eax
  20112d:	e6 e9                	out    %al,$0xe9
  20112f:	8b 45 f4             	mov    -0xc(%ebp),%eax
  201132:	83 e0 0f             	and    $0xf,%eax
  201135:	83 f8 09             	cmp    $0x9,%eax
  201138:	76 0e                	jbe    201148 <sos_bochs_puthex+0x106>
  20113a:	8b 45 f4             	mov    -0xc(%ebp),%eax
  20113d:	83 e0 0f             	and    $0xf,%eax
  201140:	83 c0 57             	add    $0x57,%eax
  201143:	88 45 fc             	mov    %al,-0x4(%ebp)
  201146:	eb 0c                	jmp    201154 <sos_bochs_puthex+0x112>
  201148:	8b 45 f4             	mov    -0xc(%ebp),%eax
  20114b:	83 e0 0f             	and    $0xf,%eax
  20114e:	83 c0 30             	add    $0x30,%eax
  201151:	88 45 fc             	mov    %al,-0x4(%ebp)
  201154:	0f b6 45 fc          	movzbl -0x4(%ebp),%eax
  201158:	e6 e9                	out    %al,$0xe9
  20115a:	8b 45 08             	mov    0x8(%ebp),%eax
  20115d:	c1 e8 08             	shr    $0x8,%eax
  201160:	25 ff 00 00 00       	and    $0xff,%eax
  201165:	89 45 f4             	mov    %eax,-0xc(%ebp)
  201168:	8b 45 f4             	mov    -0xc(%ebp),%eax
  20116b:	c1 e8 04             	shr    $0x4,%eax
  20116e:	83 e0 0f             	and    $0xf,%eax
  201171:	83 f8 09             	cmp    $0x9,%eax
  201174:	76 11                	jbe    201187 <sos_bochs_puthex+0x145>
  201176:	8b 45 f4             	mov    -0xc(%ebp),%eax
  201179:	c1 e8 04             	shr    $0x4,%eax
  20117c:	83 e0 0f             	and    $0xf,%eax
  20117f:	83 c0 57             	add    $0x57,%eax
  201182:	88 45 fb             	mov    %al,-0x5(%ebp)
  201185:	eb 0f                	jmp    201196 <sos_bochs_puthex+0x154>
  201187:	8b 45 f4             	mov    -0xc(%ebp),%eax
  20118a:	c1 e8 04             	shr    $0x4,%eax
  20118d:	83 e0 0f             	and    $0xf,%eax
  201190:	83 c0 30             	add    $0x30,%eax
  201193:	88 45 fb             	mov    %al,-0x5(%ebp)
  201196:	0f b6 45 fb          	movzbl -0x5(%ebp),%eax
  20119a:	e6 e9                	out    %al,$0xe9
  20119c:	8b 45 f4             	mov    -0xc(%ebp),%eax
  20119f:	83 e0 0f             	and    $0xf,%eax
  2011a2:	83 f8 09             	cmp    $0x9,%eax
  2011a5:	76 0e                	jbe    2011b5 <sos_bochs_puthex+0x173>
  2011a7:	8b 45 f4             	mov    -0xc(%ebp),%eax
  2011aa:	83 e0 0f             	and    $0xf,%eax
  2011ad:	83 c0 57             	add    $0x57,%eax
  2011b0:	88 45 fa             	mov    %al,-0x6(%ebp)
  2011b3:	eb 0c                	jmp    2011c1 <sos_bochs_puthex+0x17f>
  2011b5:	8b 45 f4             	mov    -0xc(%ebp),%eax
  2011b8:	83 e0 0f             	and    $0xf,%eax
  2011bb:	83 c0 30             	add    $0x30,%eax
  2011be:	88 45 fa             	mov    %al,-0x6(%ebp)
  2011c1:	0f b6 45 fa          	movzbl -0x6(%ebp),%eax
  2011c5:	e6 e9                	out    %al,$0xe9
  2011c7:	8b 45 08             	mov    0x8(%ebp),%eax
  2011ca:	0f b6 c0             	movzbl %al,%eax
  2011cd:	89 45 f4             	mov    %eax,-0xc(%ebp)
  2011d0:	8b 45 f4             	mov    -0xc(%ebp),%eax
  2011d3:	c1 e8 04             	shr    $0x4,%eax
  2011d6:	83 e0 0f             	and    $0xf,%eax
  2011d9:	83 f8 09             	cmp    $0x9,%eax
  2011dc:	76 11                	jbe    2011ef <sos_bochs_puthex+0x1ad>
  2011de:	8b 45 f4             	mov    -0xc(%ebp),%eax
  2011e1:	c1 e8 04             	shr    $0x4,%eax
  2011e4:	83 e0 0f             	and    $0xf,%eax
  2011e7:	83 c0 57             	add    $0x57,%eax
  2011ea:	88 45 f9             	mov    %al,-0x7(%ebp)
  2011ed:	eb 0f                	jmp    2011fe <sos_bochs_puthex+0x1bc>
  2011ef:	8b 45 f4             	mov    -0xc(%ebp),%eax
  2011f2:	c1 e8 04             	shr    $0x4,%eax
  2011f5:	83 e0 0f             	and    $0xf,%eax
  2011f8:	83 c0 30             	add    $0x30,%eax
  2011fb:	88 45 f9             	mov    %al,-0x7(%ebp)
  2011fe:	0f b6 45 f9          	movzbl -0x7(%ebp),%eax
  201202:	e6 e9                	out    %al,$0xe9
  201204:	8b 45 f4             	mov    -0xc(%ebp),%eax
  201207:	83 e0 0f             	and    $0xf,%eax
  20120a:	83 f8 09             	cmp    $0x9,%eax
  20120d:	76 0e                	jbe    20121d <sos_bochs_puthex+0x1db>
  20120f:	8b 45 f4             	mov    -0xc(%ebp),%eax
  201212:	83 e0 0f             	and    $0xf,%eax
  201215:	83 c0 57             	add    $0x57,%eax
  201218:	88 45 f8             	mov    %al,-0x8(%ebp)
  20121b:	eb 0c                	jmp    201229 <sos_bochs_puthex+0x1e7>
  20121d:	8b 45 f4             	mov    -0xc(%ebp),%eax
  201220:	83 e0 0f             	and    $0xf,%eax
  201223:	83 c0 30             	add    $0x30,%eax
  201226:	88 45 f8             	mov    %al,-0x8(%ebp)
  201229:	0f b6 45 f8          	movzbl -0x8(%ebp),%eax
  20122d:	e6 e9                	out    %al,$0xe9
  20122f:	b8 00 00 00 00       	mov    $0x0,%eax
  201234:	c9                   	leave
  201235:	c3                   	ret

00201236 <sos_bochs_hexdump>:
  201236:	55                   	push   %ebp
  201237:	89 e5                	mov    %esp,%ebp
  201239:	83 ec 10             	sub    $0x10,%esp
  20123c:	c7 45 fc 00 00 00 00 	movl   $0x0,-0x4(%ebp)
  201243:	e9 86 00 00 00       	jmp    2012ce <sos_bochs_hexdump+0x98>
  201248:	8b 45 fc             	mov    -0x4(%ebp),%eax
  20124b:	83 e0 0f             	and    $0xf,%eax
  20124e:	85 c0                	test   %eax,%eax
  201250:	75 1b                	jne    20126d <sos_bochs_hexdump+0x37>
  201252:	68 00 40 20 00       	push   $0x204000
  201257:	e8 be fd ff ff       	call   20101a <sos_bochs_putstring>
  20125c:	83 c4 04             	add    $0x4,%esp
  20125f:	8b 45 fc             	mov    -0x4(%ebp),%eax
  201262:	6a 04                	push   $0x4
  201264:	50                   	push   %eax
  201265:	e8 d8 fd ff ff       	call   201042 <sos_bochs_puthex>
  20126a:	83 c4 08             	add    $0x8,%esp
  20126d:	8b 45 fc             	mov    -0x4(%ebp),%eax
  201270:	83 e0 07             	and    $0x7,%eax
  201273:	85 c0                	test   %eax,%eax
  201275:	75 0d                	jne    201284 <sos_bochs_hexdump+0x4e>
  201277:	68 03 40 20 00       	push   $0x204003
  20127c:	e8 99 fd ff ff       	call   20101a <sos_bochs_putstring>
  201281:	83 c4 04             	add    $0x4,%esp
  201284:	8b 55 fc             	mov    -0x4(%ebp),%edx
  201287:	8b 45 08             	mov    0x8(%ebp),%eax
  20128a:	01 d0                	add    %edx,%eax
  20128c:	89 45 f8             	mov    %eax,-0x8(%ebp)
  20128f:	8b 45 f8             	mov    -0x8(%ebp),%eax
  201292:	0f b6 00             	movzbl (%eax),%eax
  201295:	0f b6 c0             	movzbl %al,%eax
  201298:	6a 01                	push   $0x1
  20129a:	50                   	push   %eax
  20129b:	e8 a2 fd ff ff       	call   201042 <sos_bochs_puthex>
  2012a0:	83 c4 08             	add    $0x8,%esp
  2012a3:	68 07 40 20 00       	push   $0x204007
  2012a8:	e8 6d fd ff ff       	call   20101a <sos_bochs_putstring>
  2012ad:	83 c4 04             	add    $0x4,%esp
  2012b0:	8b 45 fc             	mov    -0x4(%ebp),%eax
  2012b3:	83 c0 01             	add    $0x1,%eax
  2012b6:	83 e0 0f             	and    $0xf,%eax
  2012b9:	85 c0                	test   %eax,%eax
  2012bb:	75 0d                	jne    2012ca <sos_bochs_hexdump+0x94>
  2012bd:	68 09 40 20 00       	push   $0x204009
  2012c2:	e8 53 fd ff ff       	call   20101a <sos_bochs_putstring>
  2012c7:	83 c4 04             	add    $0x4,%esp
  2012ca:	83 45 fc 01          	addl   $0x1,-0x4(%ebp)
  2012ce:	8b 45 fc             	mov    -0x4(%ebp),%eax
  2012d1:	3b 45 0c             	cmp    0xc(%ebp),%eax
  2012d4:	0f 8c 6e ff ff ff    	jl     201248 <sos_bochs_hexdump+0x12>
  2012da:	8b 45 fc             	mov    -0x4(%ebp),%eax
  2012dd:	83 e0 0f             	and    $0xf,%eax
  2012e0:	85 c0                	test   %eax,%eax
  2012e2:	74 0d                	je     2012f1 <sos_bochs_hexdump+0xbb>
  2012e4:	68 09 40 20 00       	push   $0x204009
  2012e9:	e8 2c fd ff ff       	call   20101a <sos_bochs_putstring>
  2012ee:	83 c4 04             	add    $0x4,%esp
  2012f1:	b8 00 00 00 00       	mov    $0x0,%eax
  2012f6:	c9                   	leave
  2012f7:	c3                   	ret

002012f8 <sos_bochs_printf>:
  2012f8:	55                   	push   %ebp
  2012f9:	89 e5                	mov    %esp,%ebp
  2012fb:	81 ec 18 01 00 00    	sub    $0x118,%esp
  201301:	8d 45 0c             	lea    0xc(%ebp),%eax
  201304:	89 45 f4             	mov    %eax,-0xc(%ebp)
  201307:	ff 75 f4             	push   -0xc(%ebp)
  20130a:	ff 75 08             	push   0x8(%ebp)
  20130d:	68 00 01 00 00       	push   $0x100
  201312:	8d 85 f4 fe ff ff    	lea    -0x10c(%ebp),%eax
  201318:	50                   	push   %eax
  201319:	e8 32 16 00 00       	call   202950 <vsnprintf>
  20131e:	83 c4 10             	add    $0x10,%esp
  201321:	83 ec 0c             	sub    $0xc,%esp
  201324:	8d 85 f4 fe ff ff    	lea    -0x10c(%ebp),%eax
  20132a:	50                   	push   %eax
  20132b:	e8 ea fc ff ff       	call   20101a <sos_bochs_putstring>
  201330:	83 c4 10             	add    $0x10,%esp
  201333:	c9                   	leave
  201334:	c3                   	ret

00201335 <sos_x86_videomem_setup>:
  201335:	55                   	push   %ebp
  201336:	89 e5                	mov    %esp,%ebp
  201338:	b8 0a 00 00 00       	mov    $0xa,%eax
  20133d:	ba d4 03 00 00       	mov    $0x3d4,%edx
  201342:	ee                   	out    %al,(%dx)
  201343:	b8 20 00 00 00       	mov    $0x20,%eax
  201348:	ba d5 03 00 00       	mov    $0x3d5,%edx
  20134d:	ee                   	out    %al,(%dx)
  20134e:	b8 00 00 00 00       	mov    $0x0,%eax
  201353:	5d                   	pop    %ebp
  201354:	c3                   	ret

00201355 <sos_x86_videomem_cls>:
  201355:	55                   	push   %ebp
  201356:	89 e5                	mov    %esp,%ebp
  201358:	83 ec 14             	sub    $0x14,%esp
  20135b:	8b 45 08             	mov    0x8(%ebp),%eax
  20135e:	88 45 ec             	mov    %al,-0x14(%ebp)
  201361:	c7 45 fc 00 00 00 00 	movl   $0x0,-0x4(%ebp)
  201368:	eb 20                	jmp    20138a <sos_x86_videomem_cls+0x35>
  20136a:	a1 00 30 20 00       	mov    0x203000,%eax
  20136f:	8b 55 fc             	mov    -0x4(%ebp),%edx
  201372:	c6 04 50 00          	movb   $0x0,(%eax,%edx,2)
  201376:	a1 00 30 20 00       	mov    0x203000,%eax
  20137b:	8b 55 fc             	mov    -0x4(%ebp),%edx
  20137e:	0f b6 4d ec          	movzbl -0x14(%ebp),%ecx
  201382:	88 4c 50 01          	mov    %cl,0x1(%eax,%edx,2)
  201386:	83 45 fc 01          	addl   $0x1,-0x4(%ebp)
  20138a:	81 7d fc cf 07 00 00 	cmpl   $0x7cf,-0x4(%ebp)
  201391:	7e d7                	jle    20136a <sos_x86_videomem_cls+0x15>
  201393:	b8 00 00 00 00       	mov    $0x0,%eax
  201398:	c9                   	leave
  201399:	c3                   	ret

0020139a <sos_x86_videomem_putstring>:
  20139a:	55                   	push   %ebp
  20139b:	89 e5                	mov    %esp,%ebp
  20139d:	83 ec 1c             	sub    $0x1c,%esp
  2013a0:	8b 4d 08             	mov    0x8(%ebp),%ecx
  2013a3:	8b 55 0c             	mov    0xc(%ebp),%edx
  2013a6:	8b 45 10             	mov    0x10(%ebp),%eax
  2013a9:	88 4d ec             	mov    %cl,-0x14(%ebp)
  2013ac:	88 55 e8             	mov    %dl,-0x18(%ebp)
  2013af:	88 45 e4             	mov    %al,-0x1c(%ebp)
  2013b2:	0f b6 55 ec          	movzbl -0x14(%ebp),%edx
  2013b6:	89 d0                	mov    %edx,%eax
  2013b8:	c1 e0 02             	shl    $0x2,%eax
  2013bb:	01 d0                	add    %edx,%eax
  2013bd:	c1 e0 04             	shl    $0x4,%eax
  2013c0:	89 c2                	mov    %eax,%edx
  2013c2:	0f b6 45 e8          	movzbl -0x18(%ebp),%eax
  2013c6:	01 d0                	add    %edx,%eax
  2013c8:	89 45 fc             	mov    %eax,-0x4(%ebp)
  2013cb:	81 7d fc cf 07 00 00 	cmpl   $0x7cf,-0x4(%ebp)
  2013d2:	76 32                	jbe    201406 <sos_x86_videomem_putstring+0x6c>
  2013d4:	b8 ff ff ff ff       	mov    $0xffffffff,%eax
  2013d9:	eb 49                	jmp    201424 <sos_x86_videomem_putstring+0x8a>
  2013db:	8b 45 14             	mov    0x14(%ebp),%eax
  2013de:	0f b6 10             	movzbl (%eax),%edx
  2013e1:	a1 00 30 20 00       	mov    0x203000,%eax
  2013e6:	89 d1                	mov    %edx,%ecx
  2013e8:	8b 55 fc             	mov    -0x4(%ebp),%edx
  2013eb:	88 0c 50             	mov    %cl,(%eax,%edx,2)
  2013ee:	a1 00 30 20 00       	mov    0x203000,%eax
  2013f3:	8b 55 fc             	mov    -0x4(%ebp),%edx
  2013f6:	0f b6 4d e4          	movzbl -0x1c(%ebp),%ecx
  2013fa:	88 4c 50 01          	mov    %cl,0x1(%eax,%edx,2)
  2013fe:	83 45 14 01          	addl   $0x1,0x14(%ebp)
  201402:	83 45 fc 01          	addl   $0x1,-0x4(%ebp)
  201406:	83 7d 14 00          	cmpl   $0x0,0x14(%ebp)
  20140a:	74 13                	je     20141f <sos_x86_videomem_putstring+0x85>
  20140c:	8b 45 14             	mov    0x14(%ebp),%eax
  20140f:	0f b6 00             	movzbl (%eax),%eax
  201412:	84 c0                	test   %al,%al
  201414:	74 09                	je     20141f <sos_x86_videomem_putstring+0x85>
  201416:	81 7d fc cf 07 00 00 	cmpl   $0x7cf,-0x4(%ebp)
  20141d:	76 bc                	jbe    2013db <sos_x86_videomem_putstring+0x41>
  20141f:	b8 00 00 00 00       	mov    $0x0,%eax
  201424:	c9                   	leave
  201425:	c3                   	ret

00201426 <sos_x86_videomem_putchar>:
  201426:	55                   	push   %ebp
  201427:	89 e5                	mov    %esp,%ebp
  201429:	53                   	push   %ebx
  20142a:	83 ec 20             	sub    $0x20,%esp
  20142d:	8b 5d 08             	mov    0x8(%ebp),%ebx
  201430:	8b 4d 0c             	mov    0xc(%ebp),%ecx
  201433:	8b 55 10             	mov    0x10(%ebp),%edx
  201436:	8b 45 14             	mov    0x14(%ebp),%eax
  201439:	88 5d e8             	mov    %bl,-0x18(%ebp)
  20143c:	88 4d e4             	mov    %cl,-0x1c(%ebp)
  20143f:	88 55 e0             	mov    %dl,-0x20(%ebp)
  201442:	88 45 dc             	mov    %al,-0x24(%ebp)
  201445:	0f b6 55 e8          	movzbl -0x18(%ebp),%edx
  201449:	89 d0                	mov    %edx,%eax
  20144b:	c1 e0 02             	shl    $0x2,%eax
  20144e:	01 d0                	add    %edx,%eax
  201450:	c1 e0 04             	shl    $0x4,%eax
  201453:	89 c2                	mov    %eax,%edx
  201455:	0f b6 45 e4          	movzbl -0x1c(%ebp),%eax
  201459:	01 d0                	add    %edx,%eax
  20145b:	89 45 f8             	mov    %eax,-0x8(%ebp)
  20145e:	81 7d f8 cf 07 00 00 	cmpl   $0x7cf,-0x8(%ebp)
  201465:	76 07                	jbe    20146e <sos_x86_videomem_putchar+0x48>
  201467:	b8 ff ff ff ff       	mov    $0xffffffff,%eax
  20146c:	eb 24                	jmp    201492 <sos_x86_videomem_putchar+0x6c>
  20146e:	a1 00 30 20 00       	mov    0x203000,%eax
  201473:	8b 55 f8             	mov    -0x8(%ebp),%edx
  201476:	0f b6 4d dc          	movzbl -0x24(%ebp),%ecx
  20147a:	88 0c 50             	mov    %cl,(%eax,%edx,2)
  20147d:	a1 00 30 20 00       	mov    0x203000,%eax
  201482:	8b 55 f8             	mov    -0x8(%ebp),%edx
  201485:	0f b6 4d e0          	movzbl -0x20(%ebp),%ecx
  201489:	88 4c 50 01          	mov    %cl,0x1(%eax,%edx,2)
  20148d:	b8 00 00 00 00       	mov    $0x0,%eax
  201492:	8b 5d fc             	mov    -0x4(%ebp),%ebx
  201495:	c9                   	leave
  201496:	c3                   	ret

00201497 <sos_x86_videomem_printf>:
  201497:	55                   	push   %ebp
  201498:	89 e5                	mov    %esp,%ebp
  20149a:	53                   	push   %ebx
  20149b:	81 ec 24 01 00 00    	sub    $0x124,%esp
  2014a1:	8b 4d 08             	mov    0x8(%ebp),%ecx
  2014a4:	8b 55 0c             	mov    0xc(%ebp),%edx
  2014a7:	8b 45 10             	mov    0x10(%ebp),%eax
  2014aa:	88 8d e4 fe ff ff    	mov    %cl,-0x11c(%ebp)
  2014b0:	88 95 e0 fe ff ff    	mov    %dl,-0x120(%ebp)
  2014b6:	88 85 dc fe ff ff    	mov    %al,-0x124(%ebp)
  2014bc:	8d 45 18             	lea    0x18(%ebp),%eax
  2014bf:	89 45 f4             	mov    %eax,-0xc(%ebp)
  2014c2:	ff 75 f4             	push   -0xc(%ebp)
  2014c5:	ff 75 14             	push   0x14(%ebp)
  2014c8:	68 00 01 00 00       	push   $0x100
  2014cd:	8d 85 f4 fe ff ff    	lea    -0x10c(%ebp),%eax
  2014d3:	50                   	push   %eax
  2014d4:	e8 77 14 00 00       	call   202950 <vsnprintf>
  2014d9:	83 c4 10             	add    $0x10,%esp
  2014dc:	0f b6 8d dc fe ff ff 	movzbl -0x124(%ebp),%ecx
  2014e3:	0f b6 95 e0 fe ff ff 	movzbl -0x120(%ebp),%edx
  2014ea:	0f b6 85 e4 fe ff ff 	movzbl -0x11c(%ebp),%eax
  2014f1:	8d 9d f4 fe ff ff    	lea    -0x10c(%ebp),%ebx
  2014f7:	53                   	push   %ebx
  2014f8:	51                   	push   %ecx
  2014f9:	52                   	push   %edx
  2014fa:	50                   	push   %eax
  2014fb:	e8 9a fe ff ff       	call   20139a <sos_x86_videomem_putstring>
  201500:	83 c4 10             	add    $0x10,%esp
  201503:	8b 5d fc             	mov    -0x4(%ebp),%ebx
  201506:	c9                   	leave
  201507:	c3                   	ret

00201508 <sos_exception_wrapper_0>:
  201508:	6a 00                	push   $0x0
  20150a:	55                   	push   %ebp
  20150b:	89 e5                	mov    %esp,%ebp
  20150d:	57                   	push   %edi
  20150e:	56                   	push   %esi
  20150f:	52                   	push   %edx
  201510:	51                   	push   %ecx
  201511:	53                   	push   %ebx
  201512:	50                   	push   %eax
  201513:	83 ec 02             	sub    $0x2,%esp
  201516:	66 16                	pushw  %ss
  201518:	66 1e                	pushw  %ds
  20151a:	66 06                	pushw  %es
  20151c:	66 0f a0             	pushw  %fs
  20151f:	66 0f a8             	pushw  %gs
  201522:	6a 00                	push   $0x0
  201524:	8d 3d 00 90 20 00    	lea    0x209000,%edi
  20152a:	ff 17                	call   *(%edi)
  20152c:	83 c4 04             	add    $0x4,%esp
  20152f:	66 0f a9             	popw   %gs
  201532:	66 0f a1             	popw   %fs
  201535:	66 07                	popw   %es
  201537:	66 1f                	popw   %ds
  201539:	66 17                	popw   %ss
  20153b:	83 c4 02             	add    $0x2,%esp
  20153e:	58                   	pop    %eax
  20153f:	5b                   	pop    %ebx
  201540:	59                   	pop    %ecx
  201541:	5a                   	pop    %edx
  201542:	5e                   	pop    %esi
  201543:	5f                   	pop    %edi
  201544:	5d                   	pop    %ebp
  201545:	83 c4 04             	add    $0x4,%esp
  201548:	cf                   	iret
  201549:	8d 76 00             	lea    0x0(%esi),%esi

0020154c <sos_exception_wrapper_1>:
  20154c:	6a 00                	push   $0x0
  20154e:	55                   	push   %ebp
  20154f:	89 e5                	mov    %esp,%ebp
  201551:	57                   	push   %edi
  201552:	56                   	push   %esi
  201553:	52                   	push   %edx
  201554:	51                   	push   %ecx
  201555:	53                   	push   %ebx
  201556:	50                   	push   %eax
  201557:	83 ec 02             	sub    $0x2,%esp
  20155a:	66 16                	pushw  %ss
  20155c:	66 1e                	pushw  %ds
  20155e:	66 06                	pushw  %es
  201560:	66 0f a0             	pushw  %fs
  201563:	66 0f a8             	pushw  %gs
  201566:	6a 01                	push   $0x1
  201568:	8d 3d 00 90 20 00    	lea    0x209000,%edi
  20156e:	ff 57 04             	call   *0x4(%edi)
  201571:	83 c4 04             	add    $0x4,%esp
  201574:	66 0f a9             	popw   %gs
  201577:	66 0f a1             	popw   %fs
  20157a:	66 07                	popw   %es
  20157c:	66 1f                	popw   %ds
  20157e:	66 17                	popw   %ss
  201580:	83 c4 02             	add    $0x2,%esp
  201583:	58                   	pop    %eax
  201584:	5b                   	pop    %ebx
  201585:	59                   	pop    %ecx
  201586:	5a                   	pop    %edx
  201587:	5e                   	pop    %esi
  201588:	5f                   	pop    %edi
  201589:	5d                   	pop    %ebp
  20158a:	83 c4 04             	add    $0x4,%esp
  20158d:	cf                   	iret
  20158e:	66 90                	xchg   %ax,%ax

00201590 <sos_exception_wrapper_2>:
  201590:	6a 00                	push   $0x0
  201592:	55                   	push   %ebp
  201593:	89 e5                	mov    %esp,%ebp
  201595:	57                   	push   %edi
  201596:	56                   	push   %esi
  201597:	52                   	push   %edx
  201598:	51                   	push   %ecx
  201599:	53                   	push   %ebx
  20159a:	50                   	push   %eax
  20159b:	83 ec 02             	sub    $0x2,%esp
  20159e:	66 16                	pushw  %ss
  2015a0:	66 1e                	pushw  %ds
  2015a2:	66 06                	pushw  %es
  2015a4:	66 0f a0             	pushw  %fs
  2015a7:	66 0f a8             	pushw  %gs
  2015aa:	6a 02                	push   $0x2
  2015ac:	8d 3d 00 90 20 00    	lea    0x209000,%edi
  2015b2:	ff 57 08             	call   *0x8(%edi)
  2015b5:	83 c4 04             	add    $0x4,%esp
  2015b8:	66 0f a9             	popw   %gs
  2015bb:	66 0f a1             	popw   %fs
  2015be:	66 07                	popw   %es
  2015c0:	66 1f                	popw   %ds
  2015c2:	66 17                	popw   %ss
  2015c4:	83 c4 02             	add    $0x2,%esp
  2015c7:	58                   	pop    %eax
  2015c8:	5b                   	pop    %ebx
  2015c9:	59                   	pop    %ecx
  2015ca:	5a                   	pop    %edx
  2015cb:	5e                   	pop    %esi
  2015cc:	5f                   	pop    %edi
  2015cd:	5d                   	pop    %ebp
  2015ce:	83 c4 04             	add    $0x4,%esp
  2015d1:	cf                   	iret
  2015d2:	66 90                	xchg   %ax,%ax

002015d4 <sos_exception_wrapper_3>:
  2015d4:	6a 00                	push   $0x0
  2015d6:	55                   	push   %ebp
  2015d7:	89 e5                	mov    %esp,%ebp
  2015d9:	57                   	push   %edi
  2015da:	56                   	push   %esi
  2015db:	52                   	push   %edx
  2015dc:	51                   	push   %ecx
  2015dd:	53                   	push   %ebx
  2015de:	50                   	push   %eax
  2015df:	83 ec 02             	sub    $0x2,%esp
  2015e2:	66 16                	pushw  %ss
  2015e4:	66 1e                	pushw  %ds
  2015e6:	66 06                	pushw  %es
  2015e8:	66 0f a0             	pushw  %fs
  2015eb:	66 0f a8             	pushw  %gs
  2015ee:	6a 03                	push   $0x3
  2015f0:	8d 3d 00 90 20 00    	lea    0x209000,%edi
  2015f6:	ff 57 0c             	call   *0xc(%edi)
  2015f9:	83 c4 04             	add    $0x4,%esp
  2015fc:	66 0f a9             	popw   %gs
  2015ff:	66 0f a1             	popw   %fs
  201602:	66 07                	popw   %es
  201604:	66 1f                	popw   %ds
  201606:	66 17                	popw   %ss
  201608:	83 c4 02             	add    $0x2,%esp
  20160b:	58                   	pop    %eax
  20160c:	5b                   	pop    %ebx
  20160d:	59                   	pop    %ecx
  20160e:	5a                   	pop    %edx
  20160f:	5e                   	pop    %esi
  201610:	5f                   	pop    %edi
  201611:	5d                   	pop    %ebp
  201612:	83 c4 04             	add    $0x4,%esp
  201615:	cf                   	iret
  201616:	66 90                	xchg   %ax,%ax

00201618 <sos_exception_wrapper_4>:
  201618:	6a 00                	push   $0x0
  20161a:	55                   	push   %ebp
  20161b:	89 e5                	mov    %esp,%ebp
  20161d:	57                   	push   %edi
  20161e:	56                   	push   %esi
  20161f:	52                   	push   %edx
  201620:	51                   	push   %ecx
  201621:	53                   	push   %ebx
  201622:	50                   	push   %eax
  201623:	83 ec 02             	sub    $0x2,%esp
  201626:	66 16                	pushw  %ss
  201628:	66 1e                	pushw  %ds
  20162a:	66 06                	pushw  %es
  20162c:	66 0f a0             	pushw  %fs
  20162f:	66 0f a8             	pushw  %gs
  201632:	6a 04                	push   $0x4
  201634:	8d 3d 00 90 20 00    	lea    0x209000,%edi
  20163a:	ff 57 10             	call   *0x10(%edi)
  20163d:	83 c4 04             	add    $0x4,%esp
  201640:	66 0f a9             	popw   %gs
  201643:	66 0f a1             	popw   %fs
  201646:	66 07                	popw   %es
  201648:	66 1f                	popw   %ds
  20164a:	66 17                	popw   %ss
  20164c:	83 c4 02             	add    $0x2,%esp
  20164f:	58                   	pop    %eax
  201650:	5b                   	pop    %ebx
  201651:	59                   	pop    %ecx
  201652:	5a                   	pop    %edx
  201653:	5e                   	pop    %esi
  201654:	5f                   	pop    %edi
  201655:	5d                   	pop    %ebp
  201656:	83 c4 04             	add    $0x4,%esp
  201659:	cf                   	iret
  20165a:	66 90                	xchg   %ax,%ax

0020165c <sos_exception_wrapper_5>:
  20165c:	6a 00                	push   $0x0
  20165e:	55                   	push   %ebp
  20165f:	89 e5                	mov    %esp,%ebp
  201661:	57                   	push   %edi
  201662:	56                   	push   %esi
  201663:	52                   	push   %edx
  201664:	51                   	push   %ecx
  201665:	53                   	push   %ebx
  201666:	50                   	push   %eax
  201667:	83 ec 02             	sub    $0x2,%esp
  20166a:	66 16                	pushw  %ss
  20166c:	66 1e                	pushw  %ds
  20166e:	66 06                	pushw  %es
  201670:	66 0f a0             	pushw  %fs
  201673:	66 0f a8             	pushw  %gs
  201676:	6a 05                	push   $0x5
  201678:	8d 3d 00 90 20 00    	lea    0x209000,%edi
  20167e:	ff 57 14             	call   *0x14(%edi)
  201681:	83 c4 04             	add    $0x4,%esp
  201684:	66 0f a9             	popw   %gs
  201687:	66 0f a1             	popw   %fs
  20168a:	66 07                	popw   %es
  20168c:	66 1f                	popw   %ds
  20168e:	66 17                	popw   %ss
  201690:	83 c4 02             	add    $0x2,%esp
  201693:	58                   	pop    %eax
  201694:	5b                   	pop    %ebx
  201695:	59                   	pop    %ecx
  201696:	5a                   	pop    %edx
  201697:	5e                   	pop    %esi
  201698:	5f                   	pop    %edi
  201699:	5d                   	pop    %ebp
  20169a:	83 c4 04             	add    $0x4,%esp
  20169d:	cf                   	iret
  20169e:	66 90                	xchg   %ax,%ax

002016a0 <sos_exception_wrapper_6>:
  2016a0:	6a 00                	push   $0x0
  2016a2:	55                   	push   %ebp
  2016a3:	89 e5                	mov    %esp,%ebp
  2016a5:	57                   	push   %edi
  2016a6:	56                   	push   %esi
  2016a7:	52                   	push   %edx
  2016a8:	51                   	push   %ecx
  2016a9:	53                   	push   %ebx
  2016aa:	50                   	push   %eax
  2016ab:	83 ec 02             	sub    $0x2,%esp
  2016ae:	66 16                	pushw  %ss
  2016b0:	66 1e                	pushw  %ds
  2016b2:	66 06                	pushw  %es
  2016b4:	66 0f a0             	pushw  %fs
  2016b7:	66 0f a8             	pushw  %gs
  2016ba:	6a 06                	push   $0x6
  2016bc:	8d 3d 00 90 20 00    	lea    0x209000,%edi
  2016c2:	ff 57 18             	call   *0x18(%edi)
  2016c5:	83 c4 04             	add    $0x4,%esp
  2016c8:	66 0f a9             	popw   %gs
  2016cb:	66 0f a1             	popw   %fs
  2016ce:	66 07                	popw   %es
  2016d0:	66 1f                	popw   %ds
  2016d2:	66 17                	popw   %ss
  2016d4:	83 c4 02             	add    $0x2,%esp
  2016d7:	58                   	pop    %eax
  2016d8:	5b                   	pop    %ebx
  2016d9:	59                   	pop    %ecx
  2016da:	5a                   	pop    %edx
  2016db:	5e                   	pop    %esi
  2016dc:	5f                   	pop    %edi
  2016dd:	5d                   	pop    %ebp
  2016de:	83 c4 04             	add    $0x4,%esp
  2016e1:	cf                   	iret
  2016e2:	66 90                	xchg   %ax,%ax

002016e4 <sos_exception_wrapper_7>:
  2016e4:	6a 00                	push   $0x0
  2016e6:	55                   	push   %ebp
  2016e7:	89 e5                	mov    %esp,%ebp
  2016e9:	57                   	push   %edi
  2016ea:	56                   	push   %esi
  2016eb:	52                   	push   %edx
  2016ec:	51                   	push   %ecx
  2016ed:	53                   	push   %ebx
  2016ee:	50                   	push   %eax
  2016ef:	83 ec 02             	sub    $0x2,%esp
  2016f2:	66 16                	pushw  %ss
  2016f4:	66 1e                	pushw  %ds
  2016f6:	66 06                	pushw  %es
  2016f8:	66 0f a0             	pushw  %fs
  2016fb:	66 0f a8             	pushw  %gs
  2016fe:	6a 07                	push   $0x7
  201700:	8d 3d 00 90 20 00    	lea    0x209000,%edi
  201706:	ff 57 1c             	call   *0x1c(%edi)
  201709:	83 c4 04             	add    $0x4,%esp
  20170c:	66 0f a9             	popw   %gs
  20170f:	66 0f a1             	popw   %fs
  201712:	66 07                	popw   %es
  201714:	66 1f                	popw   %ds
  201716:	66 17                	popw   %ss
  201718:	83 c4 02             	add    $0x2,%esp
  20171b:	58                   	pop    %eax
  20171c:	5b                   	pop    %ebx
  20171d:	59                   	pop    %ecx
  20171e:	5a                   	pop    %edx
  20171f:	5e                   	pop    %esi
  201720:	5f                   	pop    %edi
  201721:	5d                   	pop    %ebp
  201722:	83 c4 04             	add    $0x4,%esp
  201725:	cf                   	iret
  201726:	66 90                	xchg   %ax,%ax

00201728 <sos_exception_wrapper_9>:
  201728:	6a 00                	push   $0x0
  20172a:	55                   	push   %ebp
  20172b:	89 e5                	mov    %esp,%ebp
  20172d:	57                   	push   %edi
  20172e:	56                   	push   %esi
  20172f:	52                   	push   %edx
  201730:	51                   	push   %ecx
  201731:	53                   	push   %ebx
  201732:	50                   	push   %eax
  201733:	83 ec 02             	sub    $0x2,%esp
  201736:	66 16                	pushw  %ss
  201738:	66 1e                	pushw  %ds
  20173a:	66 06                	pushw  %es
  20173c:	66 0f a0             	pushw  %fs
  20173f:	66 0f a8             	pushw  %gs
  201742:	6a 09                	push   $0x9
  201744:	8d 3d 00 90 20 00    	lea    0x209000,%edi
  20174a:	ff 57 24             	call   *0x24(%edi)
  20174d:	83 c4 04             	add    $0x4,%esp
  201750:	66 0f a9             	popw   %gs
  201753:	66 0f a1             	popw   %fs
  201756:	66 07                	popw   %es
  201758:	66 1f                	popw   %ds
  20175a:	66 17                	popw   %ss
  20175c:	83 c4 02             	add    $0x2,%esp
  20175f:	58                   	pop    %eax
  201760:	5b                   	pop    %ebx
  201761:	59                   	pop    %ecx
  201762:	5a                   	pop    %edx
  201763:	5e                   	pop    %esi
  201764:	5f                   	pop    %edi
  201765:	5d                   	pop    %ebp
  201766:	83 c4 04             	add    $0x4,%esp
  201769:	cf                   	iret
  20176a:	66 90                	xchg   %ax,%ax

0020176c <sos_exception_wrapper_15>:
  20176c:	6a 00                	push   $0x0
  20176e:	55                   	push   %ebp
  20176f:	89 e5                	mov    %esp,%ebp
  201771:	57                   	push   %edi
  201772:	56                   	push   %esi
  201773:	52                   	push   %edx
  201774:	51                   	push   %ecx
  201775:	53                   	push   %ebx
  201776:	50                   	push   %eax
  201777:	83 ec 02             	sub    $0x2,%esp
  20177a:	66 16                	pushw  %ss
  20177c:	66 1e                	pushw  %ds
  20177e:	66 06                	pushw  %es
  201780:	66 0f a0             	pushw  %fs
  201783:	66 0f a8             	pushw  %gs
  201786:	6a 0f                	push   $0xf
  201788:	8d 3d 00 90 20 00    	lea    0x209000,%edi
  20178e:	ff 57 3c             	call   *0x3c(%edi)
  201791:	83 c4 04             	add    $0x4,%esp
  201794:	66 0f a9             	popw   %gs
  201797:	66 0f a1             	popw   %fs
  20179a:	66 07                	popw   %es
  20179c:	66 1f                	popw   %ds
  20179e:	66 17                	popw   %ss
  2017a0:	83 c4 02             	add    $0x2,%esp
  2017a3:	58                   	pop    %eax
  2017a4:	5b                   	pop    %ebx
  2017a5:	59                   	pop    %ecx
  2017a6:	5a                   	pop    %edx
  2017a7:	5e                   	pop    %esi
  2017a8:	5f                   	pop    %edi
  2017a9:	5d                   	pop    %ebp
  2017aa:	83 c4 04             	add    $0x4,%esp
  2017ad:	cf                   	iret
  2017ae:	66 90                	xchg   %ax,%ax

002017b0 <sos_exception_wrapper_16>:
  2017b0:	6a 00                	push   $0x0
  2017b2:	55                   	push   %ebp
  2017b3:	89 e5                	mov    %esp,%ebp
  2017b5:	57                   	push   %edi
  2017b6:	56                   	push   %esi
  2017b7:	52                   	push   %edx
  2017b8:	51                   	push   %ecx
  2017b9:	53                   	push   %ebx
  2017ba:	50                   	push   %eax
  2017bb:	83 ec 02             	sub    $0x2,%esp
  2017be:	66 16                	pushw  %ss
  2017c0:	66 1e                	pushw  %ds
  2017c2:	66 06                	pushw  %es
  2017c4:	66 0f a0             	pushw  %fs
  2017c7:	66 0f a8             	pushw  %gs
  2017ca:	6a 10                	push   $0x10
  2017cc:	8d 3d 00 90 20 00    	lea    0x209000,%edi
  2017d2:	ff 57 40             	call   *0x40(%edi)
  2017d5:	83 c4 04             	add    $0x4,%esp
  2017d8:	66 0f a9             	popw   %gs
  2017db:	66 0f a1             	popw   %fs
  2017de:	66 07                	popw   %es
  2017e0:	66 1f                	popw   %ds
  2017e2:	66 17                	popw   %ss
  2017e4:	83 c4 02             	add    $0x2,%esp
  2017e7:	58                   	pop    %eax
  2017e8:	5b                   	pop    %ebx
  2017e9:	59                   	pop    %ecx
  2017ea:	5a                   	pop    %edx
  2017eb:	5e                   	pop    %esi
  2017ec:	5f                   	pop    %edi
  2017ed:	5d                   	pop    %ebp
  2017ee:	83 c4 04             	add    $0x4,%esp
  2017f1:	cf                   	iret
  2017f2:	66 90                	xchg   %ax,%ax

002017f4 <sos_exception_wrapper_18>:
  2017f4:	6a 00                	push   $0x0
  2017f6:	55                   	push   %ebp
  2017f7:	89 e5                	mov    %esp,%ebp
  2017f9:	57                   	push   %edi
  2017fa:	56                   	push   %esi
  2017fb:	52                   	push   %edx
  2017fc:	51                   	push   %ecx
  2017fd:	53                   	push   %ebx
  2017fe:	50                   	push   %eax
  2017ff:	83 ec 02             	sub    $0x2,%esp
  201802:	66 16                	pushw  %ss
  201804:	66 1e                	pushw  %ds
  201806:	66 06                	pushw  %es
  201808:	66 0f a0             	pushw  %fs
  20180b:	66 0f a8             	pushw  %gs
  20180e:	6a 12                	push   $0x12
  201810:	8d 3d 00 90 20 00    	lea    0x209000,%edi
  201816:	ff 57 48             	call   *0x48(%edi)
  201819:	83 c4 04             	add    $0x4,%esp
  20181c:	66 0f a9             	popw   %gs
  20181f:	66 0f a1             	popw   %fs
  201822:	66 07                	popw   %es
  201824:	66 1f                	popw   %ds
  201826:	66 17                	popw   %ss
  201828:	83 c4 02             	add    $0x2,%esp
  20182b:	58                   	pop    %eax
  20182c:	5b                   	pop    %ebx
  20182d:	59                   	pop    %ecx
  20182e:	5a                   	pop    %edx
  20182f:	5e                   	pop    %esi
  201830:	5f                   	pop    %edi
  201831:	5d                   	pop    %ebp
  201832:	83 c4 04             	add    $0x4,%esp
  201835:	cf                   	iret
  201836:	66 90                	xchg   %ax,%ax

00201838 <sos_exception_wrapper_19>:
  201838:	6a 00                	push   $0x0
  20183a:	55                   	push   %ebp
  20183b:	89 e5                	mov    %esp,%ebp
  20183d:	57                   	push   %edi
  20183e:	56                   	push   %esi
  20183f:	52                   	push   %edx
  201840:	51                   	push   %ecx
  201841:	53                   	push   %ebx
  201842:	50                   	push   %eax
  201843:	83 ec 02             	sub    $0x2,%esp
  201846:	66 16                	pushw  %ss
  201848:	66 1e                	pushw  %ds
  20184a:	66 06                	pushw  %es
  20184c:	66 0f a0             	pushw  %fs
  20184f:	66 0f a8             	pushw  %gs
  201852:	6a 13                	push   $0x13
  201854:	8d 3d 00 90 20 00    	lea    0x209000,%edi
  20185a:	ff 57 4c             	call   *0x4c(%edi)
  20185d:	83 c4 04             	add    $0x4,%esp
  201860:	66 0f a9             	popw   %gs
  201863:	66 0f a1             	popw   %fs
  201866:	66 07                	popw   %es
  201868:	66 1f                	popw   %ds
  20186a:	66 17                	popw   %ss
  20186c:	83 c4 02             	add    $0x2,%esp
  20186f:	58                   	pop    %eax
  201870:	5b                   	pop    %ebx
  201871:	59                   	pop    %ecx
  201872:	5a                   	pop    %edx
  201873:	5e                   	pop    %esi
  201874:	5f                   	pop    %edi
  201875:	5d                   	pop    %ebp
  201876:	83 c4 04             	add    $0x4,%esp
  201879:	cf                   	iret
  20187a:	66 90                	xchg   %ax,%ax

0020187c <sos_exception_wrapper_20>:
  20187c:	6a 00                	push   $0x0
  20187e:	55                   	push   %ebp
  20187f:	89 e5                	mov    %esp,%ebp
  201881:	57                   	push   %edi
  201882:	56                   	push   %esi
  201883:	52                   	push   %edx
  201884:	51                   	push   %ecx
  201885:	53                   	push   %ebx
  201886:	50                   	push   %eax
  201887:	83 ec 02             	sub    $0x2,%esp
  20188a:	66 16                	pushw  %ss
  20188c:	66 1e                	pushw  %ds
  20188e:	66 06                	pushw  %es
  201890:	66 0f a0             	pushw  %fs
  201893:	66 0f a8             	pushw  %gs
  201896:	6a 14                	push   $0x14
  201898:	8d 3d 00 90 20 00    	lea    0x209000,%edi
  20189e:	ff 57 50             	call   *0x50(%edi)
  2018a1:	83 c4 04             	add    $0x4,%esp
  2018a4:	66 0f a9             	popw   %gs
  2018a7:	66 0f a1             	popw   %fs
  2018aa:	66 07                	popw   %es
  2018ac:	66 1f                	popw   %ds
  2018ae:	66 17                	popw   %ss
  2018b0:	83 c4 02             	add    $0x2,%esp
  2018b3:	58                   	pop    %eax
  2018b4:	5b                   	pop    %ebx
  2018b5:	59                   	pop    %ecx
  2018b6:	5a                   	pop    %edx
  2018b7:	5e                   	pop    %esi
  2018b8:	5f                   	pop    %edi
  2018b9:	5d                   	pop    %ebp
  2018ba:	83 c4 04             	add    $0x4,%esp
  2018bd:	cf                   	iret
  2018be:	66 90                	xchg   %ax,%ax

002018c0 <sos_exception_wrapper_21>:
  2018c0:	6a 00                	push   $0x0
  2018c2:	55                   	push   %ebp
  2018c3:	89 e5                	mov    %esp,%ebp
  2018c5:	57                   	push   %edi
  2018c6:	56                   	push   %esi
  2018c7:	52                   	push   %edx
  2018c8:	51                   	push   %ecx
  2018c9:	53                   	push   %ebx
  2018ca:	50                   	push   %eax
  2018cb:	83 ec 02             	sub    $0x2,%esp
  2018ce:	66 16                	pushw  %ss
  2018d0:	66 1e                	pushw  %ds
  2018d2:	66 06                	pushw  %es
  2018d4:	66 0f a0             	pushw  %fs
  2018d7:	66 0f a8             	pushw  %gs
  2018da:	6a 15                	push   $0x15
  2018dc:	8d 3d 00 90 20 00    	lea    0x209000,%edi
  2018e2:	ff 57 54             	call   *0x54(%edi)
  2018e5:	83 c4 04             	add    $0x4,%esp
  2018e8:	66 0f a9             	popw   %gs
  2018eb:	66 0f a1             	popw   %fs
  2018ee:	66 07                	popw   %es
  2018f0:	66 1f                	popw   %ds
  2018f2:	66 17                	popw   %ss
  2018f4:	83 c4 02             	add    $0x2,%esp
  2018f7:	58                   	pop    %eax
  2018f8:	5b                   	pop    %ebx
  2018f9:	59                   	pop    %ecx
  2018fa:	5a                   	pop    %edx
  2018fb:	5e                   	pop    %esi
  2018fc:	5f                   	pop    %edi
  2018fd:	5d                   	pop    %ebp
  2018fe:	83 c4 04             	add    $0x4,%esp
  201901:	cf                   	iret
  201902:	66 90                	xchg   %ax,%ax

00201904 <sos_exception_wrapper_22>:
  201904:	6a 00                	push   $0x0
  201906:	55                   	push   %ebp
  201907:	89 e5                	mov    %esp,%ebp
  201909:	57                   	push   %edi
  20190a:	56                   	push   %esi
  20190b:	52                   	push   %edx
  20190c:	51                   	push   %ecx
  20190d:	53                   	push   %ebx
  20190e:	50                   	push   %eax
  20190f:	83 ec 02             	sub    $0x2,%esp
  201912:	66 16                	pushw  %ss
  201914:	66 1e                	pushw  %ds
  201916:	66 06                	pushw  %es
  201918:	66 0f a0             	pushw  %fs
  20191b:	66 0f a8             	pushw  %gs
  20191e:	6a 16                	push   $0x16
  201920:	8d 3d 00 90 20 00    	lea    0x209000,%edi
  201926:	ff 57 58             	call   *0x58(%edi)
  201929:	83 c4 04             	add    $0x4,%esp
  20192c:	66 0f a9             	popw   %gs
  20192f:	66 0f a1             	popw   %fs
  201932:	66 07                	popw   %es
  201934:	66 1f                	popw   %ds
  201936:	66 17                	popw   %ss
  201938:	83 c4 02             	add    $0x2,%esp
  20193b:	58                   	pop    %eax
  20193c:	5b                   	pop    %ebx
  20193d:	59                   	pop    %ecx
  20193e:	5a                   	pop    %edx
  20193f:	5e                   	pop    %esi
  201940:	5f                   	pop    %edi
  201941:	5d                   	pop    %ebp
  201942:	83 c4 04             	add    $0x4,%esp
  201945:	cf                   	iret
  201946:	66 90                	xchg   %ax,%ax

00201948 <sos_exception_wrapper_23>:
  201948:	6a 00                	push   $0x0
  20194a:	55                   	push   %ebp
  20194b:	89 e5                	mov    %esp,%ebp
  20194d:	57                   	push   %edi
  20194e:	56                   	push   %esi
  20194f:	52                   	push   %edx
  201950:	51                   	push   %ecx
  201951:	53                   	push   %ebx
  201952:	50                   	push   %eax
  201953:	83 ec 02             	sub    $0x2,%esp
  201956:	66 16                	pushw  %ss
  201958:	66 1e                	pushw  %ds
  20195a:	66 06                	pushw  %es
  20195c:	66 0f a0             	pushw  %fs
  20195f:	66 0f a8             	pushw  %gs
  201962:	6a 17                	push   $0x17
  201964:	8d 3d 00 90 20 00    	lea    0x209000,%edi
  20196a:	ff 57 5c             	call   *0x5c(%edi)
  20196d:	83 c4 04             	add    $0x4,%esp
  201970:	66 0f a9             	popw   %gs
  201973:	66 0f a1             	popw   %fs
  201976:	66 07                	popw   %es
  201978:	66 1f                	popw   %ds
  20197a:	66 17                	popw   %ss
  20197c:	83 c4 02             	add    $0x2,%esp
  20197f:	58                   	pop    %eax
  201980:	5b                   	pop    %ebx
  201981:	59                   	pop    %ecx
  201982:	5a                   	pop    %edx
  201983:	5e                   	pop    %esi
  201984:	5f                   	pop    %edi
  201985:	5d                   	pop    %ebp
  201986:	83 c4 04             	add    $0x4,%esp
  201989:	cf                   	iret
  20198a:	66 90                	xchg   %ax,%ax

0020198c <sos_exception_wrapper_24>:
  20198c:	6a 00                	push   $0x0
  20198e:	55                   	push   %ebp
  20198f:	89 e5                	mov    %esp,%ebp
  201991:	57                   	push   %edi
  201992:	56                   	push   %esi
  201993:	52                   	push   %edx
  201994:	51                   	push   %ecx
  201995:	53                   	push   %ebx
  201996:	50                   	push   %eax
  201997:	83 ec 02             	sub    $0x2,%esp
  20199a:	66 16                	pushw  %ss
  20199c:	66 1e                	pushw  %ds
  20199e:	66 06                	pushw  %es
  2019a0:	66 0f a0             	pushw  %fs
  2019a3:	66 0f a8             	pushw  %gs
  2019a6:	6a 18                	push   $0x18
  2019a8:	8d 3d 00 90 20 00    	lea    0x209000,%edi
  2019ae:	ff 57 60             	call   *0x60(%edi)
  2019b1:	83 c4 04             	add    $0x4,%esp
  2019b4:	66 0f a9             	popw   %gs
  2019b7:	66 0f a1             	popw   %fs
  2019ba:	66 07                	popw   %es
  2019bc:	66 1f                	popw   %ds
  2019be:	66 17                	popw   %ss
  2019c0:	83 c4 02             	add    $0x2,%esp
  2019c3:	58                   	pop    %eax
  2019c4:	5b                   	pop    %ebx
  2019c5:	59                   	pop    %ecx
  2019c6:	5a                   	pop    %edx
  2019c7:	5e                   	pop    %esi
  2019c8:	5f                   	pop    %edi
  2019c9:	5d                   	pop    %ebp
  2019ca:	83 c4 04             	add    $0x4,%esp
  2019cd:	cf                   	iret
  2019ce:	66 90                	xchg   %ax,%ax

002019d0 <sos_exception_wrapper_25>:
  2019d0:	6a 00                	push   $0x0
  2019d2:	55                   	push   %ebp
  2019d3:	89 e5                	mov    %esp,%ebp
  2019d5:	57                   	push   %edi
  2019d6:	56                   	push   %esi
  2019d7:	52                   	push   %edx
  2019d8:	51                   	push   %ecx
  2019d9:	53                   	push   %ebx
  2019da:	50                   	push   %eax
  2019db:	83 ec 02             	sub    $0x2,%esp
  2019de:	66 16                	pushw  %ss
  2019e0:	66 1e                	pushw  %ds
  2019e2:	66 06                	pushw  %es
  2019e4:	66 0f a0             	pushw  %fs
  2019e7:	66 0f a8             	pushw  %gs
  2019ea:	6a 19                	push   $0x19
  2019ec:	8d 3d 00 90 20 00    	lea    0x209000,%edi
  2019f2:	ff 57 64             	call   *0x64(%edi)
  2019f5:	83 c4 04             	add    $0x4,%esp
  2019f8:	66 0f a9             	popw   %gs
  2019fb:	66 0f a1             	popw   %fs
  2019fe:	66 07                	popw   %es
  201a00:	66 1f                	popw   %ds
  201a02:	66 17                	popw   %ss
  201a04:	83 c4 02             	add    $0x2,%esp
  201a07:	58                   	pop    %eax
  201a08:	5b                   	pop    %ebx
  201a09:	59                   	pop    %ecx
  201a0a:	5a                   	pop    %edx
  201a0b:	5e                   	pop    %esi
  201a0c:	5f                   	pop    %edi
  201a0d:	5d                   	pop    %ebp
  201a0e:	83 c4 04             	add    $0x4,%esp
  201a11:	cf                   	iret
  201a12:	66 90                	xchg   %ax,%ax

00201a14 <sos_exception_wrapper_26>:
  201a14:	6a 00                	push   $0x0
  201a16:	55                   	push   %ebp
  201a17:	89 e5                	mov    %esp,%ebp
  201a19:	57                   	push   %edi
  201a1a:	56                   	push   %esi
  201a1b:	52                   	push   %edx
  201a1c:	51                   	push   %ecx
  201a1d:	53                   	push   %ebx
  201a1e:	50                   	push   %eax
  201a1f:	83 ec 02             	sub    $0x2,%esp
  201a22:	66 16                	pushw  %ss
  201a24:	66 1e                	pushw  %ds
  201a26:	66 06                	pushw  %es
  201a28:	66 0f a0             	pushw  %fs
  201a2b:	66 0f a8             	pushw  %gs
  201a2e:	6a 1a                	push   $0x1a
  201a30:	8d 3d 00 90 20 00    	lea    0x209000,%edi
  201a36:	ff 57 68             	call   *0x68(%edi)
  201a39:	83 c4 04             	add    $0x4,%esp
  201a3c:	66 0f a9             	popw   %gs
  201a3f:	66 0f a1             	popw   %fs
  201a42:	66 07                	popw   %es
  201a44:	66 1f                	popw   %ds
  201a46:	66 17                	popw   %ss
  201a48:	83 c4 02             	add    $0x2,%esp
  201a4b:	58                   	pop    %eax
  201a4c:	5b                   	pop    %ebx
  201a4d:	59                   	pop    %ecx
  201a4e:	5a                   	pop    %edx
  201a4f:	5e                   	pop    %esi
  201a50:	5f                   	pop    %edi
  201a51:	5d                   	pop    %ebp
  201a52:	83 c4 04             	add    $0x4,%esp
  201a55:	cf                   	iret
  201a56:	66 90                	xchg   %ax,%ax

00201a58 <sos_exception_wrapper_27>:
  201a58:	6a 00                	push   $0x0
  201a5a:	55                   	push   %ebp
  201a5b:	89 e5                	mov    %esp,%ebp
  201a5d:	57                   	push   %edi
  201a5e:	56                   	push   %esi
  201a5f:	52                   	push   %edx
  201a60:	51                   	push   %ecx
  201a61:	53                   	push   %ebx
  201a62:	50                   	push   %eax
  201a63:	83 ec 02             	sub    $0x2,%esp
  201a66:	66 16                	pushw  %ss
  201a68:	66 1e                	pushw  %ds
  201a6a:	66 06                	pushw  %es
  201a6c:	66 0f a0             	pushw  %fs
  201a6f:	66 0f a8             	pushw  %gs
  201a72:	6a 1b                	push   $0x1b
  201a74:	8d 3d 00 90 20 00    	lea    0x209000,%edi
  201a7a:	ff 57 6c             	call   *0x6c(%edi)
  201a7d:	83 c4 04             	add    $0x4,%esp
  201a80:	66 0f a9             	popw   %gs
  201a83:	66 0f a1             	popw   %fs
  201a86:	66 07                	popw   %es
  201a88:	66 1f                	popw   %ds
  201a8a:	66 17                	popw   %ss
  201a8c:	83 c4 02             	add    $0x2,%esp
  201a8f:	58                   	pop    %eax
  201a90:	5b                   	pop    %ebx
  201a91:	59                   	pop    %ecx
  201a92:	5a                   	pop    %edx
  201a93:	5e                   	pop    %esi
  201a94:	5f                   	pop    %edi
  201a95:	5d                   	pop    %ebp
  201a96:	83 c4 04             	add    $0x4,%esp
  201a99:	cf                   	iret
  201a9a:	66 90                	xchg   %ax,%ax

00201a9c <sos_exception_wrapper_28>:
  201a9c:	6a 00                	push   $0x0
  201a9e:	55                   	push   %ebp
  201a9f:	89 e5                	mov    %esp,%ebp
  201aa1:	57                   	push   %edi
  201aa2:	56                   	push   %esi
  201aa3:	52                   	push   %edx
  201aa4:	51                   	push   %ecx
  201aa5:	53                   	push   %ebx
  201aa6:	50                   	push   %eax
  201aa7:	83 ec 02             	sub    $0x2,%esp
  201aaa:	66 16                	pushw  %ss
  201aac:	66 1e                	pushw  %ds
  201aae:	66 06                	pushw  %es
  201ab0:	66 0f a0             	pushw  %fs
  201ab3:	66 0f a8             	pushw  %gs
  201ab6:	6a 1c                	push   $0x1c
  201ab8:	8d 3d 00 90 20 00    	lea    0x209000,%edi
  201abe:	ff 57 70             	call   *0x70(%edi)
  201ac1:	83 c4 04             	add    $0x4,%esp
  201ac4:	66 0f a9             	popw   %gs
  201ac7:	66 0f a1             	popw   %fs
  201aca:	66 07                	popw   %es
  201acc:	66 1f                	popw   %ds
  201ace:	66 17                	popw   %ss
  201ad0:	83 c4 02             	add    $0x2,%esp
  201ad3:	58                   	pop    %eax
  201ad4:	5b                   	pop    %ebx
  201ad5:	59                   	pop    %ecx
  201ad6:	5a                   	pop    %edx
  201ad7:	5e                   	pop    %esi
  201ad8:	5f                   	pop    %edi
  201ad9:	5d                   	pop    %ebp
  201ada:	83 c4 04             	add    $0x4,%esp
  201add:	cf                   	iret
  201ade:	66 90                	xchg   %ax,%ax

00201ae0 <sos_exception_wrapper_29>:
  201ae0:	6a 00                	push   $0x0
  201ae2:	55                   	push   %ebp
  201ae3:	89 e5                	mov    %esp,%ebp
  201ae5:	57                   	push   %edi
  201ae6:	56                   	push   %esi
  201ae7:	52                   	push   %edx
  201ae8:	51                   	push   %ecx
  201ae9:	53                   	push   %ebx
  201aea:	50                   	push   %eax
  201aeb:	83 ec 02             	sub    $0x2,%esp
  201aee:	66 16                	pushw  %ss
  201af0:	66 1e                	pushw  %ds
  201af2:	66 06                	pushw  %es
  201af4:	66 0f a0             	pushw  %fs
  201af7:	66 0f a8             	pushw  %gs
  201afa:	6a 1d                	push   $0x1d
  201afc:	8d 3d 00 90 20 00    	lea    0x209000,%edi
  201b02:	ff 57 74             	call   *0x74(%edi)
  201b05:	83 c4 04             	add    $0x4,%esp
  201b08:	66 0f a9             	popw   %gs
  201b0b:	66 0f a1             	popw   %fs
  201b0e:	66 07                	popw   %es
  201b10:	66 1f                	popw   %ds
  201b12:	66 17                	popw   %ss
  201b14:	83 c4 02             	add    $0x2,%esp
  201b17:	58                   	pop    %eax
  201b18:	5b                   	pop    %ebx
  201b19:	59                   	pop    %ecx
  201b1a:	5a                   	pop    %edx
  201b1b:	5e                   	pop    %esi
  201b1c:	5f                   	pop    %edi
  201b1d:	5d                   	pop    %ebp
  201b1e:	83 c4 04             	add    $0x4,%esp
  201b21:	cf                   	iret
  201b22:	66 90                	xchg   %ax,%ax

00201b24 <sos_exception_wrapper_30>:
  201b24:	6a 00                	push   $0x0
  201b26:	55                   	push   %ebp
  201b27:	89 e5                	mov    %esp,%ebp
  201b29:	57                   	push   %edi
  201b2a:	56                   	push   %esi
  201b2b:	52                   	push   %edx
  201b2c:	51                   	push   %ecx
  201b2d:	53                   	push   %ebx
  201b2e:	50                   	push   %eax
  201b2f:	83 ec 02             	sub    $0x2,%esp
  201b32:	66 16                	pushw  %ss
  201b34:	66 1e                	pushw  %ds
  201b36:	66 06                	pushw  %es
  201b38:	66 0f a0             	pushw  %fs
  201b3b:	66 0f a8             	pushw  %gs
  201b3e:	6a 1e                	push   $0x1e
  201b40:	8d 3d 00 90 20 00    	lea    0x209000,%edi
  201b46:	ff 57 78             	call   *0x78(%edi)
  201b49:	83 c4 04             	add    $0x4,%esp
  201b4c:	66 0f a9             	popw   %gs
  201b4f:	66 0f a1             	popw   %fs
  201b52:	66 07                	popw   %es
  201b54:	66 1f                	popw   %ds
  201b56:	66 17                	popw   %ss
  201b58:	83 c4 02             	add    $0x2,%esp
  201b5b:	58                   	pop    %eax
  201b5c:	5b                   	pop    %ebx
  201b5d:	59                   	pop    %ecx
  201b5e:	5a                   	pop    %edx
  201b5f:	5e                   	pop    %esi
  201b60:	5f                   	pop    %edi
  201b61:	5d                   	pop    %ebp
  201b62:	83 c4 04             	add    $0x4,%esp
  201b65:	cf                   	iret
  201b66:	66 90                	xchg   %ax,%ax

00201b68 <sos_exception_wrapper_31>:
  201b68:	6a 00                	push   $0x0
  201b6a:	55                   	push   %ebp
  201b6b:	89 e5                	mov    %esp,%ebp
  201b6d:	57                   	push   %edi
  201b6e:	56                   	push   %esi
  201b6f:	52                   	push   %edx
  201b70:	51                   	push   %ecx
  201b71:	53                   	push   %ebx
  201b72:	50                   	push   %eax
  201b73:	83 ec 02             	sub    $0x2,%esp
  201b76:	66 16                	pushw  %ss
  201b78:	66 1e                	pushw  %ds
  201b7a:	66 06                	pushw  %es
  201b7c:	66 0f a0             	pushw  %fs
  201b7f:	66 0f a8             	pushw  %gs
  201b82:	6a 1f                	push   $0x1f
  201b84:	8d 3d 00 90 20 00    	lea    0x209000,%edi
  201b8a:	ff 57 7c             	call   *0x7c(%edi)
  201b8d:	83 c4 04             	add    $0x4,%esp
  201b90:	66 0f a9             	popw   %gs
  201b93:	66 0f a1             	popw   %fs
  201b96:	66 07                	popw   %es
  201b98:	66 1f                	popw   %ds
  201b9a:	66 17                	popw   %ss
  201b9c:	83 c4 02             	add    $0x2,%esp
  201b9f:	58                   	pop    %eax
  201ba0:	5b                   	pop    %ebx
  201ba1:	59                   	pop    %ecx
  201ba2:	5a                   	pop    %edx
  201ba3:	5e                   	pop    %esi
  201ba4:	5f                   	pop    %edi
  201ba5:	5d                   	pop    %ebp
  201ba6:	83 c4 04             	add    $0x4,%esp
  201ba9:	cf                   	iret
  201baa:	66 90                	xchg   %ax,%ax

00201bac <sos_exception_wrapper_10>:
  201bac:	55                   	push   %ebp
  201bad:	89 e5                	mov    %esp,%ebp
  201baf:	57                   	push   %edi
  201bb0:	56                   	push   %esi
  201bb1:	52                   	push   %edx
  201bb2:	51                   	push   %ecx
  201bb3:	53                   	push   %ebx
  201bb4:	50                   	push   %eax
  201bb5:	83 ec 02             	sub    $0x2,%esp
  201bb8:	66 16                	pushw  %ss
  201bba:	66 1e                	pushw  %ds
  201bbc:	66 06                	pushw  %es
  201bbe:	66 0f a0             	pushw  %fs
  201bc1:	66 0f a8             	pushw  %gs
  201bc4:	6a 0a                	push   $0xa
  201bc6:	8d 3d 00 90 20 00    	lea    0x209000,%edi
  201bcc:	ff 57 28             	call   *0x28(%edi)
  201bcf:	83 c4 04             	add    $0x4,%esp
  201bd2:	66 0f a9             	popw   %gs
  201bd5:	66 0f a1             	popw   %fs
  201bd8:	66 07                	popw   %es
  201bda:	66 1f                	popw   %ds
  201bdc:	66 17                	popw   %ss
  201bde:	83 c4 02             	add    $0x2,%esp
  201be1:	58                   	pop    %eax
  201be2:	5b                   	pop    %ebx
  201be3:	59                   	pop    %ecx
  201be4:	5a                   	pop    %edx
  201be5:	5e                   	pop    %esi
  201be6:	5f                   	pop    %edi
  201be7:	5d                   	pop    %ebp
  201be8:	83 c4 04             	add    $0x4,%esp
  201beb:	cf                   	iret

00201bec <sos_exception_wrapper_11>:
  201bec:	55                   	push   %ebp
  201bed:	89 e5                	mov    %esp,%ebp
  201bef:	57                   	push   %edi
  201bf0:	56                   	push   %esi
  201bf1:	52                   	push   %edx
  201bf2:	51                   	push   %ecx
  201bf3:	53                   	push   %ebx
  201bf4:	50                   	push   %eax
  201bf5:	83 ec 02             	sub    $0x2,%esp
  201bf8:	66 16                	pushw  %ss
  201bfa:	66 1e                	pushw  %ds
  201bfc:	66 06                	pushw  %es
  201bfe:	66 0f a0             	pushw  %fs
  201c01:	66 0f a8             	pushw  %gs
  201c04:	6a 0b                	push   $0xb
  201c06:	8d 3d 00 90 20 00    	lea    0x209000,%edi
  201c0c:	ff 57 2c             	call   *0x2c(%edi)
  201c0f:	83 c4 04             	add    $0x4,%esp
  201c12:	66 0f a9             	popw   %gs
  201c15:	66 0f a1             	popw   %fs
  201c18:	66 07                	popw   %es
  201c1a:	66 1f                	popw   %ds
  201c1c:	66 17                	popw   %ss
  201c1e:	83 c4 02             	add    $0x2,%esp
  201c21:	58                   	pop    %eax
  201c22:	5b                   	pop    %ebx
  201c23:	59                   	pop    %ecx
  201c24:	5a                   	pop    %edx
  201c25:	5e                   	pop    %esi
  201c26:	5f                   	pop    %edi
  201c27:	5d                   	pop    %ebp
  201c28:	83 c4 04             	add    $0x4,%esp
  201c2b:	cf                   	iret

00201c2c <sos_exception_wrapper_12>:
  201c2c:	55                   	push   %ebp
  201c2d:	89 e5                	mov    %esp,%ebp
  201c2f:	57                   	push   %edi
  201c30:	56                   	push   %esi
  201c31:	52                   	push   %edx
  201c32:	51                   	push   %ecx
  201c33:	53                   	push   %ebx
  201c34:	50                   	push   %eax
  201c35:	83 ec 02             	sub    $0x2,%esp
  201c38:	66 16                	pushw  %ss
  201c3a:	66 1e                	pushw  %ds
  201c3c:	66 06                	pushw  %es
  201c3e:	66 0f a0             	pushw  %fs
  201c41:	66 0f a8             	pushw  %gs
  201c44:	6a 0c                	push   $0xc
  201c46:	8d 3d 00 90 20 00    	lea    0x209000,%edi
  201c4c:	ff 57 30             	call   *0x30(%edi)
  201c4f:	83 c4 04             	add    $0x4,%esp
  201c52:	66 0f a9             	popw   %gs
  201c55:	66 0f a1             	popw   %fs
  201c58:	66 07                	popw   %es
  201c5a:	66 1f                	popw   %ds
  201c5c:	66 17                	popw   %ss
  201c5e:	83 c4 02             	add    $0x2,%esp
  201c61:	58                   	pop    %eax
  201c62:	5b                   	pop    %ebx
  201c63:	59                   	pop    %ecx
  201c64:	5a                   	pop    %edx
  201c65:	5e                   	pop    %esi
  201c66:	5f                   	pop    %edi
  201c67:	5d                   	pop    %ebp
  201c68:	83 c4 04             	add    $0x4,%esp
  201c6b:	cf                   	iret

00201c6c <sos_exception_wrapper_13>:
  201c6c:	55                   	push   %ebp
  201c6d:	89 e5                	mov    %esp,%ebp
  201c6f:	57                   	push   %edi
  201c70:	56                   	push   %esi
  201c71:	52                   	push   %edx
  201c72:	51                   	push   %ecx
  201c73:	53                   	push   %ebx
  201c74:	50                   	push   %eax
  201c75:	83 ec 02             	sub    $0x2,%esp
  201c78:	66 16                	pushw  %ss
  201c7a:	66 1e                	pushw  %ds
  201c7c:	66 06                	pushw  %es
  201c7e:	66 0f a0             	pushw  %fs
  201c81:	66 0f a8             	pushw  %gs
  201c84:	6a 0d                	push   $0xd
  201c86:	8d 3d 00 90 20 00    	lea    0x209000,%edi
  201c8c:	ff 57 34             	call   *0x34(%edi)
  201c8f:	83 c4 04             	add    $0x4,%esp
  201c92:	66 0f a9             	popw   %gs
  201c95:	66 0f a1             	popw   %fs
  201c98:	66 07                	popw   %es
  201c9a:	66 1f                	popw   %ds
  201c9c:	66 17                	popw   %ss
  201c9e:	83 c4 02             	add    $0x2,%esp
  201ca1:	58                   	pop    %eax
  201ca2:	5b                   	pop    %ebx
  201ca3:	59                   	pop    %ecx
  201ca4:	5a                   	pop    %edx
  201ca5:	5e                   	pop    %esi
  201ca6:	5f                   	pop    %edi
  201ca7:	5d                   	pop    %ebp
  201ca8:	83 c4 04             	add    $0x4,%esp
  201cab:	cf                   	iret

00201cac <sos_exception_wrapper_14>:
  201cac:	55                   	push   %ebp
  201cad:	89 e5                	mov    %esp,%ebp
  201caf:	57                   	push   %edi
  201cb0:	56                   	push   %esi
  201cb1:	52                   	push   %edx
  201cb2:	51                   	push   %ecx
  201cb3:	53                   	push   %ebx
  201cb4:	50                   	push   %eax
  201cb5:	83 ec 02             	sub    $0x2,%esp
  201cb8:	66 16                	pushw  %ss
  201cba:	66 1e                	pushw  %ds
  201cbc:	66 06                	pushw  %es
  201cbe:	66 0f a0             	pushw  %fs
  201cc1:	66 0f a8             	pushw  %gs
  201cc4:	6a 0e                	push   $0xe
  201cc6:	8d 3d 00 90 20 00    	lea    0x209000,%edi
  201ccc:	ff 57 38             	call   *0x38(%edi)
  201ccf:	83 c4 04             	add    $0x4,%esp
  201cd2:	66 0f a9             	popw   %gs
  201cd5:	66 0f a1             	popw   %fs
  201cd8:	66 07                	popw   %es
  201cda:	66 1f                	popw   %ds
  201cdc:	66 17                	popw   %ss
  201cde:	83 c4 02             	add    $0x2,%esp
  201ce1:	58                   	pop    %eax
  201ce2:	5b                   	pop    %ebx
  201ce3:	59                   	pop    %ecx
  201ce4:	5a                   	pop    %edx
  201ce5:	5e                   	pop    %esi
  201ce6:	5f                   	pop    %edi
  201ce7:	5d                   	pop    %ebp
  201ce8:	83 c4 04             	add    $0x4,%esp
  201ceb:	cf                   	iret

00201cec <sos_exception_wrapper_17>:
  201cec:	55                   	push   %ebp
  201ced:	89 e5                	mov    %esp,%ebp
  201cef:	57                   	push   %edi
  201cf0:	56                   	push   %esi
  201cf1:	52                   	push   %edx
  201cf2:	51                   	push   %ecx
  201cf3:	53                   	push   %ebx
  201cf4:	50                   	push   %eax
  201cf5:	83 ec 02             	sub    $0x2,%esp
  201cf8:	66 16                	pushw  %ss
  201cfa:	66 1e                	pushw  %ds
  201cfc:	66 06                	pushw  %es
  201cfe:	66 0f a0             	pushw  %fs
  201d01:	66 0f a8             	pushw  %gs
  201d04:	6a 11                	push   $0x11
  201d06:	8d 3d 00 90 20 00    	lea    0x209000,%edi
  201d0c:	ff 57 44             	call   *0x44(%edi)
  201d0f:	83 c4 04             	add    $0x4,%esp
  201d12:	66 0f a9             	popw   %gs
  201d15:	66 0f a1             	popw   %fs
  201d18:	66 07                	popw   %es
  201d1a:	66 1f                	popw   %ds
  201d1c:	66 17                	popw   %ss
  201d1e:	83 c4 02             	add    $0x2,%esp
  201d21:	58                   	pop    %eax
  201d22:	5b                   	pop    %ebx
  201d23:	59                   	pop    %ecx
  201d24:	5a                   	pop    %edx
  201d25:	5e                   	pop    %esi
  201d26:	5f                   	pop    %edi
  201d27:	5d                   	pop    %ebp
  201d28:	83 c4 04             	add    $0x4,%esp
  201d2b:	cf                   	iret

00201d2c <sos_exception_wrapper_8>:
  201d2c:	f4                   	hlt
  201d2d:	eb fd                	jmp    201d2c <sos_exception_wrapper_8>
  201d2f:	90                   	nop

00201d30 <sos_irq_wrapper_0>:
  201d30:	6a 00                	push   $0x0
  201d32:	55                   	push   %ebp
  201d33:	89 e5                	mov    %esp,%ebp
  201d35:	57                   	push   %edi
  201d36:	56                   	push   %esi
  201d37:	52                   	push   %edx
  201d38:	51                   	push   %ecx
  201d39:	53                   	push   %ebx
  201d3a:	50                   	push   %eax
  201d3b:	83 ec 02             	sub    $0x2,%esp
  201d3e:	66 16                	pushw  %ss
  201d40:	66 1e                	pushw  %ds
  201d42:	66 06                	pushw  %es
  201d44:	66 0f a0             	pushw  %fs
  201d47:	66 0f a8             	pushw  %gs
  201d4a:	b0 20                	mov    $0x20,%al
  201d4c:	e6 20                	out    %al,$0x20
  201d4e:	6a 00                	push   $0x0
  201d50:	8d 3d 80 98 20 00    	lea    0x209880,%edi
  201d56:	ff 17                	call   *(%edi)
  201d58:	83 c4 04             	add    $0x4,%esp
  201d5b:	66 0f a9             	popw   %gs
  201d5e:	66 0f a1             	popw   %fs
  201d61:	66 07                	popw   %es
  201d63:	66 1f                	popw   %ds
  201d65:	66 17                	popw   %ss
  201d67:	83 c4 02             	add    $0x2,%esp
  201d6a:	58                   	pop    %eax
  201d6b:	5b                   	pop    %ebx
  201d6c:	59                   	pop    %ecx
  201d6d:	5a                   	pop    %edx
  201d6e:	5e                   	pop    %esi
  201d6f:	5f                   	pop    %edi
  201d70:	5d                   	pop    %ebp
  201d71:	83 c4 04             	add    $0x4,%esp
  201d74:	cf                   	iret
  201d75:	8d 76 00             	lea    0x0(%esi),%esi

00201d78 <sos_irq_wrapper_1>:
  201d78:	6a 00                	push   $0x0
  201d7a:	55                   	push   %ebp
  201d7b:	89 e5                	mov    %esp,%ebp
  201d7d:	57                   	push   %edi
  201d7e:	56                   	push   %esi
  201d7f:	52                   	push   %edx
  201d80:	51                   	push   %ecx
  201d81:	53                   	push   %ebx
  201d82:	50                   	push   %eax
  201d83:	83 ec 02             	sub    $0x2,%esp
  201d86:	66 16                	pushw  %ss
  201d88:	66 1e                	pushw  %ds
  201d8a:	66 06                	pushw  %es
  201d8c:	66 0f a0             	pushw  %fs
  201d8f:	66 0f a8             	pushw  %gs
  201d92:	b0 20                	mov    $0x20,%al
  201d94:	e6 20                	out    %al,$0x20
  201d96:	6a 01                	push   $0x1
  201d98:	8d 3d 80 98 20 00    	lea    0x209880,%edi
  201d9e:	ff 57 04             	call   *0x4(%edi)
  201da1:	83 c4 04             	add    $0x4,%esp
  201da4:	66 0f a9             	popw   %gs
  201da7:	66 0f a1             	popw   %fs
  201daa:	66 07                	popw   %es
  201dac:	66 1f                	popw   %ds
  201dae:	66 17                	popw   %ss
  201db0:	83 c4 02             	add    $0x2,%esp
  201db3:	58                   	pop    %eax
  201db4:	5b                   	pop    %ebx
  201db5:	59                   	pop    %ecx
  201db6:	5a                   	pop    %edx
  201db7:	5e                   	pop    %esi
  201db8:	5f                   	pop    %edi
  201db9:	5d                   	pop    %ebp
  201dba:	83 c4 04             	add    $0x4,%esp
  201dbd:	cf                   	iret
  201dbe:	66 90                	xchg   %ax,%ax

00201dc0 <sos_irq_wrapper_2>:
  201dc0:	6a 00                	push   $0x0
  201dc2:	55                   	push   %ebp
  201dc3:	89 e5                	mov    %esp,%ebp
  201dc5:	57                   	push   %edi
  201dc6:	56                   	push   %esi
  201dc7:	52                   	push   %edx
  201dc8:	51                   	push   %ecx
  201dc9:	53                   	push   %ebx
  201dca:	50                   	push   %eax
  201dcb:	83 ec 02             	sub    $0x2,%esp
  201dce:	66 16                	pushw  %ss
  201dd0:	66 1e                	pushw  %ds
  201dd2:	66 06                	pushw  %es
  201dd4:	66 0f a0             	pushw  %fs
  201dd7:	66 0f a8             	pushw  %gs
  201dda:	b0 20                	mov    $0x20,%al
  201ddc:	e6 20                	out    %al,$0x20
  201dde:	6a 02                	push   $0x2
  201de0:	8d 3d 80 98 20 00    	lea    0x209880,%edi
  201de6:	ff 57 08             	call   *0x8(%edi)
  201de9:	83 c4 04             	add    $0x4,%esp
  201dec:	66 0f a9             	popw   %gs
  201def:	66 0f a1             	popw   %fs
  201df2:	66 07                	popw   %es
  201df4:	66 1f                	popw   %ds
  201df6:	66 17                	popw   %ss
  201df8:	83 c4 02             	add    $0x2,%esp
  201dfb:	58                   	pop    %eax
  201dfc:	5b                   	pop    %ebx
  201dfd:	59                   	pop    %ecx
  201dfe:	5a                   	pop    %edx
  201dff:	5e                   	pop    %esi
  201e00:	5f                   	pop    %edi
  201e01:	5d                   	pop    %ebp
  201e02:	83 c4 04             	add    $0x4,%esp
  201e05:	cf                   	iret
  201e06:	66 90                	xchg   %ax,%ax

00201e08 <sos_irq_wrapper_3>:
  201e08:	6a 00                	push   $0x0
  201e0a:	55                   	push   %ebp
  201e0b:	89 e5                	mov    %esp,%ebp
  201e0d:	57                   	push   %edi
  201e0e:	56                   	push   %esi
  201e0f:	52                   	push   %edx
  201e10:	51                   	push   %ecx
  201e11:	53                   	push   %ebx
  201e12:	50                   	push   %eax
  201e13:	83 ec 02             	sub    $0x2,%esp
  201e16:	66 16                	pushw  %ss
  201e18:	66 1e                	pushw  %ds
  201e1a:	66 06                	pushw  %es
  201e1c:	66 0f a0             	pushw  %fs
  201e1f:	66 0f a8             	pushw  %gs
  201e22:	b0 20                	mov    $0x20,%al
  201e24:	e6 20                	out    %al,$0x20
  201e26:	6a 03                	push   $0x3
  201e28:	8d 3d 80 98 20 00    	lea    0x209880,%edi
  201e2e:	ff 57 0c             	call   *0xc(%edi)
  201e31:	83 c4 04             	add    $0x4,%esp
  201e34:	66 0f a9             	popw   %gs
  201e37:	66 0f a1             	popw   %fs
  201e3a:	66 07                	popw   %es
  201e3c:	66 1f                	popw   %ds
  201e3e:	66 17                	popw   %ss
  201e40:	83 c4 02             	add    $0x2,%esp
  201e43:	58                   	pop    %eax
  201e44:	5b                   	pop    %ebx
  201e45:	59                   	pop    %ecx
  201e46:	5a                   	pop    %edx
  201e47:	5e                   	pop    %esi
  201e48:	5f                   	pop    %edi
  201e49:	5d                   	pop    %ebp
  201e4a:	83 c4 04             	add    $0x4,%esp
  201e4d:	cf                   	iret
  201e4e:	66 90                	xchg   %ax,%ax

00201e50 <sos_irq_wrapper_4>:
  201e50:	6a 00                	push   $0x0
  201e52:	55                   	push   %ebp
  201e53:	89 e5                	mov    %esp,%ebp
  201e55:	57                   	push   %edi
  201e56:	56                   	push   %esi
  201e57:	52                   	push   %edx
  201e58:	51                   	push   %ecx
  201e59:	53                   	push   %ebx
  201e5a:	50                   	push   %eax
  201e5b:	83 ec 02             	sub    $0x2,%esp
  201e5e:	66 16                	pushw  %ss
  201e60:	66 1e                	pushw  %ds
  201e62:	66 06                	pushw  %es
  201e64:	66 0f a0             	pushw  %fs
  201e67:	66 0f a8             	pushw  %gs
  201e6a:	b0 20                	mov    $0x20,%al
  201e6c:	e6 20                	out    %al,$0x20
  201e6e:	6a 04                	push   $0x4
  201e70:	8d 3d 80 98 20 00    	lea    0x209880,%edi
  201e76:	ff 57 10             	call   *0x10(%edi)
  201e79:	83 c4 04             	add    $0x4,%esp
  201e7c:	66 0f a9             	popw   %gs
  201e7f:	66 0f a1             	popw   %fs
  201e82:	66 07                	popw   %es
  201e84:	66 1f                	popw   %ds
  201e86:	66 17                	popw   %ss
  201e88:	83 c4 02             	add    $0x2,%esp
  201e8b:	58                   	pop    %eax
  201e8c:	5b                   	pop    %ebx
  201e8d:	59                   	pop    %ecx
  201e8e:	5a                   	pop    %edx
  201e8f:	5e                   	pop    %esi
  201e90:	5f                   	pop    %edi
  201e91:	5d                   	pop    %ebp
  201e92:	83 c4 04             	add    $0x4,%esp
  201e95:	cf                   	iret
  201e96:	66 90                	xchg   %ax,%ax

00201e98 <sos_irq_wrapper_5>:
  201e98:	6a 00                	push   $0x0
  201e9a:	55                   	push   %ebp
  201e9b:	89 e5                	mov    %esp,%ebp
  201e9d:	57                   	push   %edi
  201e9e:	56                   	push   %esi
  201e9f:	52                   	push   %edx
  201ea0:	51                   	push   %ecx
  201ea1:	53                   	push   %ebx
  201ea2:	50                   	push   %eax
  201ea3:	83 ec 02             	sub    $0x2,%esp
  201ea6:	66 16                	pushw  %ss
  201ea8:	66 1e                	pushw  %ds
  201eaa:	66 06                	pushw  %es
  201eac:	66 0f a0             	pushw  %fs
  201eaf:	66 0f a8             	pushw  %gs
  201eb2:	b0 20                	mov    $0x20,%al
  201eb4:	e6 20                	out    %al,$0x20
  201eb6:	6a 05                	push   $0x5
  201eb8:	8d 3d 80 98 20 00    	lea    0x209880,%edi
  201ebe:	ff 57 14             	call   *0x14(%edi)
  201ec1:	83 c4 04             	add    $0x4,%esp
  201ec4:	66 0f a9             	popw   %gs
  201ec7:	66 0f a1             	popw   %fs
  201eca:	66 07                	popw   %es
  201ecc:	66 1f                	popw   %ds
  201ece:	66 17                	popw   %ss
  201ed0:	83 c4 02             	add    $0x2,%esp
  201ed3:	58                   	pop    %eax
  201ed4:	5b                   	pop    %ebx
  201ed5:	59                   	pop    %ecx
  201ed6:	5a                   	pop    %edx
  201ed7:	5e                   	pop    %esi
  201ed8:	5f                   	pop    %edi
  201ed9:	5d                   	pop    %ebp
  201eda:	83 c4 04             	add    $0x4,%esp
  201edd:	cf                   	iret
  201ede:	66 90                	xchg   %ax,%ax

00201ee0 <sos_irq_wrapper_6>:
  201ee0:	6a 00                	push   $0x0
  201ee2:	55                   	push   %ebp
  201ee3:	89 e5                	mov    %esp,%ebp
  201ee5:	57                   	push   %edi
  201ee6:	56                   	push   %esi
  201ee7:	52                   	push   %edx
  201ee8:	51                   	push   %ecx
  201ee9:	53                   	push   %ebx
  201eea:	50                   	push   %eax
  201eeb:	83 ec 02             	sub    $0x2,%esp
  201eee:	66 16                	pushw  %ss
  201ef0:	66 1e                	pushw  %ds
  201ef2:	66 06                	pushw  %es
  201ef4:	66 0f a0             	pushw  %fs
  201ef7:	66 0f a8             	pushw  %gs
  201efa:	b0 20                	mov    $0x20,%al
  201efc:	e6 20                	out    %al,$0x20
  201efe:	6a 06                	push   $0x6
  201f00:	8d 3d 80 98 20 00    	lea    0x209880,%edi
  201f06:	ff 57 18             	call   *0x18(%edi)
  201f09:	83 c4 04             	add    $0x4,%esp
  201f0c:	66 0f a9             	popw   %gs
  201f0f:	66 0f a1             	popw   %fs
  201f12:	66 07                	popw   %es
  201f14:	66 1f                	popw   %ds
  201f16:	66 17                	popw   %ss
  201f18:	83 c4 02             	add    $0x2,%esp
  201f1b:	58                   	pop    %eax
  201f1c:	5b                   	pop    %ebx
  201f1d:	59                   	pop    %ecx
  201f1e:	5a                   	pop    %edx
  201f1f:	5e                   	pop    %esi
  201f20:	5f                   	pop    %edi
  201f21:	5d                   	pop    %ebp
  201f22:	83 c4 04             	add    $0x4,%esp
  201f25:	cf                   	iret
  201f26:	66 90                	xchg   %ax,%ax

00201f28 <sos_irq_wrapper_7>:
  201f28:	6a 00                	push   $0x0
  201f2a:	55                   	push   %ebp
  201f2b:	89 e5                	mov    %esp,%ebp
  201f2d:	57                   	push   %edi
  201f2e:	56                   	push   %esi
  201f2f:	52                   	push   %edx
  201f30:	51                   	push   %ecx
  201f31:	53                   	push   %ebx
  201f32:	50                   	push   %eax
  201f33:	83 ec 02             	sub    $0x2,%esp
  201f36:	66 16                	pushw  %ss
  201f38:	66 1e                	pushw  %ds
  201f3a:	66 06                	pushw  %es
  201f3c:	66 0f a0             	pushw  %fs
  201f3f:	66 0f a8             	pushw  %gs
  201f42:	b0 20                	mov    $0x20,%al
  201f44:	e6 20                	out    %al,$0x20
  201f46:	6a 07                	push   $0x7
  201f48:	8d 3d 80 98 20 00    	lea    0x209880,%edi
  201f4e:	ff 57 1c             	call   *0x1c(%edi)
  201f51:	83 c4 04             	add    $0x4,%esp
  201f54:	66 0f a9             	popw   %gs
  201f57:	66 0f a1             	popw   %fs
  201f5a:	66 07                	popw   %es
  201f5c:	66 1f                	popw   %ds
  201f5e:	66 17                	popw   %ss
  201f60:	83 c4 02             	add    $0x2,%esp
  201f63:	58                   	pop    %eax
  201f64:	5b                   	pop    %ebx
  201f65:	59                   	pop    %ecx
  201f66:	5a                   	pop    %edx
  201f67:	5e                   	pop    %esi
  201f68:	5f                   	pop    %edi
  201f69:	5d                   	pop    %ebp
  201f6a:	83 c4 04             	add    $0x4,%esp
  201f6d:	cf                   	iret
  201f6e:	66 90                	xchg   %ax,%ax

00201f70 <sos_irq_wrapper_8>:
  201f70:	6a 00                	push   $0x0
  201f72:	55                   	push   %ebp
  201f73:	89 e5                	mov    %esp,%ebp
  201f75:	57                   	push   %edi
  201f76:	56                   	push   %esi
  201f77:	52                   	push   %edx
  201f78:	51                   	push   %ecx
  201f79:	53                   	push   %ebx
  201f7a:	50                   	push   %eax
  201f7b:	83 ec 02             	sub    $0x2,%esp
  201f7e:	66 16                	pushw  %ss
  201f80:	66 1e                	pushw  %ds
  201f82:	66 06                	pushw  %es
  201f84:	66 0f a0             	pushw  %fs
  201f87:	66 0f a8             	pushw  %gs
  201f8a:	b0 20                	mov    $0x20,%al
  201f8c:	e6 a0                	out    %al,$0xa0
  201f8e:	e6 20                	out    %al,$0x20
  201f90:	6a 08                	push   $0x8
  201f92:	8d 3d 80 98 20 00    	lea    0x209880,%edi
  201f98:	ff 57 20             	call   *0x20(%edi)
  201f9b:	83 c4 04             	add    $0x4,%esp
  201f9e:	66 0f a9             	popw   %gs
  201fa1:	66 0f a1             	popw   %fs
  201fa4:	66 07                	popw   %es
  201fa6:	66 1f                	popw   %ds
  201fa8:	66 17                	popw   %ss
  201faa:	83 c4 02             	add    $0x2,%esp
  201fad:	58                   	pop    %eax
  201fae:	5b                   	pop    %ebx
  201faf:	59                   	pop    %ecx
  201fb0:	5a                   	pop    %edx
  201fb1:	5e                   	pop    %esi
  201fb2:	5f                   	pop    %edi
  201fb3:	5d                   	pop    %ebp
  201fb4:	83 c4 04             	add    $0x4,%esp
  201fb7:	cf                   	iret

00201fb8 <sos_irq_wrapper_9>:
  201fb8:	6a 00                	push   $0x0
  201fba:	55                   	push   %ebp
  201fbb:	89 e5                	mov    %esp,%ebp
  201fbd:	57                   	push   %edi
  201fbe:	56                   	push   %esi
  201fbf:	52                   	push   %edx
  201fc0:	51                   	push   %ecx
  201fc1:	53                   	push   %ebx
  201fc2:	50                   	push   %eax
  201fc3:	83 ec 02             	sub    $0x2,%esp
  201fc6:	66 16                	pushw  %ss
  201fc8:	66 1e                	pushw  %ds
  201fca:	66 06                	pushw  %es
  201fcc:	66 0f a0             	pushw  %fs
  201fcf:	66 0f a8             	pushw  %gs
  201fd2:	b0 20                	mov    $0x20,%al
  201fd4:	e6 a0                	out    %al,$0xa0
  201fd6:	e6 20                	out    %al,$0x20
  201fd8:	6a 09                	push   $0x9
  201fda:	8d 3d 80 98 20 00    	lea    0x209880,%edi
  201fe0:	ff 57 24             	call   *0x24(%edi)
  201fe3:	83 c4 04             	add    $0x4,%esp
  201fe6:	66 0f a9             	popw   %gs
  201fe9:	66 0f a1             	popw   %fs
  201fec:	66 07                	popw   %es
  201fee:	66 1f                	popw   %ds
  201ff0:	66 17                	popw   %ss
  201ff2:	83 c4 02             	add    $0x2,%esp
  201ff5:	58                   	pop    %eax
  201ff6:	5b                   	pop    %ebx
  201ff7:	59                   	pop    %ecx
  201ff8:	5a                   	pop    %edx
  201ff9:	5e                   	pop    %esi
  201ffa:	5f                   	pop    %edi
  201ffb:	5d                   	pop    %ebp
  201ffc:	83 c4 04             	add    $0x4,%esp
  201fff:	cf                   	iret

00202000 <sos_irq_wrapper_10>:
  202000:	6a 00                	push   $0x0
  202002:	55                   	push   %ebp
  202003:	89 e5                	mov    %esp,%ebp
  202005:	57                   	push   %edi
  202006:	56                   	push   %esi
  202007:	52                   	push   %edx
  202008:	51                   	push   %ecx
  202009:	53                   	push   %ebx
  20200a:	50                   	push   %eax
  20200b:	83 ec 02             	sub    $0x2,%esp
  20200e:	66 16                	pushw  %ss
  202010:	66 1e                	pushw  %ds
  202012:	66 06                	pushw  %es
  202014:	66 0f a0             	pushw  %fs
  202017:	66 0f a8             	pushw  %gs
  20201a:	b0 20                	mov    $0x20,%al
  20201c:	e6 a0                	out    %al,$0xa0
  20201e:	e6 20                	out    %al,$0x20
  202020:	6a 0a                	push   $0xa
  202022:	8d 3d 80 98 20 00    	lea    0x209880,%edi
  202028:	ff 57 28             	call   *0x28(%edi)
  20202b:	83 c4 04             	add    $0x4,%esp
  20202e:	66 0f a9             	popw   %gs
  202031:	66 0f a1             	popw   %fs
  202034:	66 07                	popw   %es
  202036:	66 1f                	popw   %ds
  202038:	66 17                	popw   %ss
  20203a:	83 c4 02             	add    $0x2,%esp
  20203d:	58                   	pop    %eax
  20203e:	5b                   	pop    %ebx
  20203f:	59                   	pop    %ecx
  202040:	5a                   	pop    %edx
  202041:	5e                   	pop    %esi
  202042:	5f                   	pop    %edi
  202043:	5d                   	pop    %ebp
  202044:	83 c4 04             	add    $0x4,%esp
  202047:	cf                   	iret

00202048 <sos_irq_wrapper_11>:
  202048:	6a 00                	push   $0x0
  20204a:	55                   	push   %ebp
  20204b:	89 e5                	mov    %esp,%ebp
  20204d:	57                   	push   %edi
  20204e:	56                   	push   %esi
  20204f:	52                   	push   %edx
  202050:	51                   	push   %ecx
  202051:	53                   	push   %ebx
  202052:	50                   	push   %eax
  202053:	83 ec 02             	sub    $0x2,%esp
  202056:	66 16                	pushw  %ss
  202058:	66 1e                	pushw  %ds
  20205a:	66 06                	pushw  %es
  20205c:	66 0f a0             	pushw  %fs
  20205f:	66 0f a8             	pushw  %gs
  202062:	b0 20                	mov    $0x20,%al
  202064:	e6 a0                	out    %al,$0xa0
  202066:	e6 20                	out    %al,$0x20
  202068:	6a 0b                	push   $0xb
  20206a:	8d 3d 80 98 20 00    	lea    0x209880,%edi
  202070:	ff 57 2c             	call   *0x2c(%edi)
  202073:	83 c4 04             	add    $0x4,%esp
  202076:	66 0f a9             	popw   %gs
  202079:	66 0f a1             	popw   %fs
  20207c:	66 07                	popw   %es
  20207e:	66 1f                	popw   %ds
  202080:	66 17                	popw   %ss
  202082:	83 c4 02             	add    $0x2,%esp
  202085:	58                   	pop    %eax
  202086:	5b                   	pop    %ebx
  202087:	59                   	pop    %ecx
  202088:	5a                   	pop    %edx
  202089:	5e                   	pop    %esi
  20208a:	5f                   	pop    %edi
  20208b:	5d                   	pop    %ebp
  20208c:	83 c4 04             	add    $0x4,%esp
  20208f:	cf                   	iret

00202090 <sos_irq_wrapper_12>:
  202090:	6a 00                	push   $0x0
  202092:	55                   	push   %ebp
  202093:	89 e5                	mov    %esp,%ebp
  202095:	57                   	push   %edi
  202096:	56                   	push   %esi
  202097:	52                   	push   %edx
  202098:	51                   	push   %ecx
  202099:	53                   	push   %ebx
  20209a:	50                   	push   %eax
  20209b:	83 ec 02             	sub    $0x2,%esp
  20209e:	66 16                	pushw  %ss
  2020a0:	66 1e                	pushw  %ds
  2020a2:	66 06                	pushw  %es
  2020a4:	66 0f a0             	pushw  %fs
  2020a7:	66 0f a8             	pushw  %gs
  2020aa:	b0 20                	mov    $0x20,%al
  2020ac:	e6 a0                	out    %al,$0xa0
  2020ae:	e6 20                	out    %al,$0x20
  2020b0:	6a 0c                	push   $0xc
  2020b2:	8d 3d 80 98 20 00    	lea    0x209880,%edi
  2020b8:	ff 57 30             	call   *0x30(%edi)
  2020bb:	83 c4 04             	add    $0x4,%esp
  2020be:	66 0f a9             	popw   %gs
  2020c1:	66 0f a1             	popw   %fs
  2020c4:	66 07                	popw   %es
  2020c6:	66 1f                	popw   %ds
  2020c8:	66 17                	popw   %ss
  2020ca:	83 c4 02             	add    $0x2,%esp
  2020cd:	58                   	pop    %eax
  2020ce:	5b                   	pop    %ebx
  2020cf:	59                   	pop    %ecx
  2020d0:	5a                   	pop    %edx
  2020d1:	5e                   	pop    %esi
  2020d2:	5f                   	pop    %edi
  2020d3:	5d                   	pop    %ebp
  2020d4:	83 c4 04             	add    $0x4,%esp
  2020d7:	cf                   	iret

002020d8 <sos_irq_wrapper_13>:
  2020d8:	6a 00                	push   $0x0
  2020da:	55                   	push   %ebp
  2020db:	89 e5                	mov    %esp,%ebp
  2020dd:	57                   	push   %edi
  2020de:	56                   	push   %esi
  2020df:	52                   	push   %edx
  2020e0:	51                   	push   %ecx
  2020e1:	53                   	push   %ebx
  2020e2:	50                   	push   %eax
  2020e3:	83 ec 02             	sub    $0x2,%esp
  2020e6:	66 16                	pushw  %ss
  2020e8:	66 1e                	pushw  %ds
  2020ea:	66 06                	pushw  %es
  2020ec:	66 0f a0             	pushw  %fs
  2020ef:	66 0f a8             	pushw  %gs
  2020f2:	b0 20                	mov    $0x20,%al
  2020f4:	e6 a0                	out    %al,$0xa0
  2020f6:	e6 20                	out    %al,$0x20
  2020f8:	6a 0d                	push   $0xd
  2020fa:	8d 3d 80 98 20 00    	lea    0x209880,%edi
  202100:	ff 57 34             	call   *0x34(%edi)
  202103:	83 c4 04             	add    $0x4,%esp
  202106:	66 0f a9             	popw   %gs
  202109:	66 0f a1             	popw   %fs
  20210c:	66 07                	popw   %es
  20210e:	66 1f                	popw   %ds
  202110:	66 17                	popw   %ss
  202112:	83 c4 02             	add    $0x2,%esp
  202115:	58                   	pop    %eax
  202116:	5b                   	pop    %ebx
  202117:	59                   	pop    %ecx
  202118:	5a                   	pop    %edx
  202119:	5e                   	pop    %esi
  20211a:	5f                   	pop    %edi
  20211b:	5d                   	pop    %ebp
  20211c:	83 c4 04             	add    $0x4,%esp
  20211f:	cf                   	iret

00202120 <sos_irq_wrapper_14>:
  202120:	6a 00                	push   $0x0
  202122:	55                   	push   %ebp
  202123:	89 e5                	mov    %esp,%ebp
  202125:	57                   	push   %edi
  202126:	56                   	push   %esi
  202127:	52                   	push   %edx
  202128:	51                   	push   %ecx
  202129:	53                   	push   %ebx
  20212a:	50                   	push   %eax
  20212b:	83 ec 02             	sub    $0x2,%esp
  20212e:	66 16                	pushw  %ss
  202130:	66 1e                	pushw  %ds
  202132:	66 06                	pushw  %es
  202134:	66 0f a0             	pushw  %fs
  202137:	66 0f a8             	pushw  %gs
  20213a:	b0 20                	mov    $0x20,%al
  20213c:	e6 a0                	out    %al,$0xa0
  20213e:	e6 20                	out    %al,$0x20
  202140:	6a 0e                	push   $0xe
  202142:	8d 3d 80 98 20 00    	lea    0x209880,%edi
  202148:	ff 57 38             	call   *0x38(%edi)
  20214b:	83 c4 04             	add    $0x4,%esp
  20214e:	66 0f a9             	popw   %gs
  202151:	66 0f a1             	popw   %fs
  202154:	66 07                	popw   %es
  202156:	66 1f                	popw   %ds
  202158:	66 17                	popw   %ss
  20215a:	83 c4 02             	add    $0x2,%esp
  20215d:	58                   	pop    %eax
  20215e:	5b                   	pop    %ebx
  20215f:	59                   	pop    %ecx
  202160:	5a                   	pop    %edx
  202161:	5e                   	pop    %esi
  202162:	5f                   	pop    %edi
  202163:	5d                   	pop    %ebp
  202164:	83 c4 04             	add    $0x4,%esp
  202167:	cf                   	iret

00202168 <sos_irq_wrapper_15>:
  202168:	6a 00                	push   $0x0
  20216a:	55                   	push   %ebp
  20216b:	89 e5                	mov    %esp,%ebp
  20216d:	57                   	push   %edi
  20216e:	56                   	push   %esi
  20216f:	52                   	push   %edx
  202170:	51                   	push   %ecx
  202171:	53                   	push   %ebx
  202172:	50                   	push   %eax
  202173:	83 ec 02             	sub    $0x2,%esp
  202176:	66 16                	pushw  %ss
  202178:	66 1e                	pushw  %ds
  20217a:	66 06                	pushw  %es
  20217c:	66 0f a0             	pushw  %fs
  20217f:	66 0f a8             	pushw  %gs
  202182:	b0 20                	mov    $0x20,%al
  202184:	e6 a0                	out    %al,$0xa0
  202186:	e6 20                	out    %al,$0x20
  202188:	6a 0f                	push   $0xf
  20218a:	8d 3d 80 98 20 00    	lea    0x209880,%edi
  202190:	ff 57 3c             	call   *0x3c(%edi)
  202193:	83 c4 04             	add    $0x4,%esp
  202196:	66 0f a9             	popw   %gs
  202199:	66 0f a1             	popw   %fs
  20219c:	66 07                	popw   %es
  20219e:	66 1f                	popw   %ds
  2021a0:	66 17                	popw   %ss
  2021a2:	83 c4 02             	add    $0x2,%esp
  2021a5:	58                   	pop    %eax
  2021a6:	5b                   	pop    %ebx
  2021a7:	59                   	pop    %ecx
  2021a8:	5a                   	pop    %edx
  2021a9:	5e                   	pop    %esi
  2021aa:	5f                   	pop    %edi
  2021ab:	5d                   	pop    %ebp
  2021ac:	83 c4 04             	add    $0x4,%esp
  2021af:	cf                   	iret

002021b0 <sos_install_dbl_fault_exceptions>:
  2021b0:	55                   	push   %ebp
  2021b1:	89 e5                	mov    %esp,%ebp
  2021b3:	83 ec 08             	sub    $0x8,%esp
  2021b6:	a1 40 40 20 00       	mov    0x204040,%eax
  2021bb:	83 ec 04             	sub    $0x4,%esp
  2021be:	6a 00                	push   $0x0
  2021c0:	50                   	push   %eax
  2021c1:	6a 08                	push   $0x8
  2021c3:	e8 03 03 00 00       	call   2024cb <sos_idt_set_wrapper>
  2021c8:	83 c4 10             	add    $0x10,%esp
  2021cb:	c9                   	leave
  2021cc:	c3                   	ret

002021cd <sos_exception_set_routine>:
  2021cd:	55                   	push   %ebp
  2021ce:	89 e5                	mov    %esp,%ebp
  2021d0:	83 ec 18             	sub    $0x18,%esp
  2021d3:	83 7d 08 00          	cmpl   $0x0,0x8(%ebp)
  2021d7:	78 06                	js     2021df <sos_exception_set_routine+0x12>
  2021d9:	83 7d 08 1f          	cmpl   $0x1f,0x8(%ebp)
  2021dd:	7e 07                	jle    2021e6 <sos_exception_set_routine+0x19>
  2021df:	b8 ff ff ff ff       	mov    $0xffffffff,%eax
  2021e4:	eb 69                	jmp    20224f <sos_exception_set_routine+0x82>
  2021e6:	83 7d 08 08          	cmpl   $0x8,0x8(%ebp)
  2021ea:	75 07                	jne    2021f3 <sos_exception_set_routine+0x26>
  2021ec:	b8 fe ff ff ff       	mov    $0xfffffffe,%eax
  2021f1:	eb 5c                	jmp    20224f <sos_exception_set_routine+0x82>
  2021f3:	9c                   	pushf
  2021f4:	58                   	pop    %eax
  2021f5:	89 45 f0             	mov    %eax,-0x10(%ebp)
  2021f8:	fa                   	cli
  2021f9:	c7 45 f4 00 00 00 00 	movl   $0x0,-0xc(%ebp)
  202200:	8b 45 08             	mov    0x8(%ebp),%eax
  202203:	8b 55 0c             	mov    0xc(%ebp),%edx
  202206:	89 14 85 00 90 20 00 	mov    %edx,0x209000(,%eax,4)
  20220d:	83 7d 0c 00          	cmpl   $0x0,0xc(%ebp)
  202211:	74 20                	je     202233 <sos_exception_set_routine+0x66>
  202213:	8b 45 08             	mov    0x8(%ebp),%eax
  202216:	8b 04 85 20 40 20 00 	mov    0x204020(,%eax,4),%eax
  20221d:	83 ec 04             	sub    $0x4,%esp
  202220:	6a 00                	push   $0x0
  202222:	50                   	push   %eax
  202223:	ff 75 08             	push   0x8(%ebp)
  202226:	e8 a0 02 00 00       	call   2024cb <sos_idt_set_wrapper>
  20222b:	83 c4 10             	add    $0x10,%esp
  20222e:	89 45 f4             	mov    %eax,-0xc(%ebp)
  202231:	eb 15                	jmp    202248 <sos_exception_set_routine+0x7b>
  202233:	83 ec 04             	sub    $0x4,%esp
  202236:	6a 00                	push   $0x0
  202238:	6a 00                	push   $0x0
  20223a:	ff 75 08             	push   0x8(%ebp)
  20223d:	e8 89 02 00 00       	call   2024cb <sos_idt_set_wrapper>
  202242:	83 c4 10             	add    $0x10,%esp
  202245:	89 45 f4             	mov    %eax,-0xc(%ebp)
  202248:	ff 75 f0             	push   -0x10(%ebp)
  20224b:	9d                   	popf
  20224c:	8b 45 f4             	mov    -0xc(%ebp),%eax
  20224f:	c9                   	leave
  202250:	c3                   	ret

00202251 <sos_exception_get_routine>:
  202251:	55                   	push   %ebp
  202252:	89 e5                	mov    %esp,%ebp
  202254:	83 7d 08 00          	cmpl   $0x0,0x8(%ebp)
  202258:	78 06                	js     202260 <sos_exception_get_routine+0xf>
  20225a:	83 7d 08 1f          	cmpl   $0x1f,0x8(%ebp)
  20225e:	7e 07                	jle    202267 <sos_exception_get_routine+0x16>
  202260:	b8 00 00 00 00       	mov    $0x0,%eax
  202265:	eb 17                	jmp    20227e <sos_exception_get_routine+0x2d>
  202267:	83 7d 08 08          	cmpl   $0x8,0x8(%ebp)
  20226b:	75 07                	jne    202274 <sos_exception_get_routine+0x23>
  20226d:	b8 00 00 00 00       	mov    $0x0,%eax
  202272:	eb 0a                	jmp    20227e <sos_exception_get_routine+0x2d>
  202274:	8b 45 08             	mov    0x8(%ebp),%eax
  202277:	8b 04 85 00 90 20 00 	mov    0x209000(,%eax,4),%eax
  20227e:	5d                   	pop    %ebp
  20227f:	c3                   	ret

00202280 <sos_gdt_setup>:
  202280:	55                   	push   %ebp
  202281:	89 e5                	mov    %esp,%ebp
  202283:	83 ec 10             	sub    $0x10,%esp
  202286:	b8 08 30 20 00       	mov    $0x203008,%eax
  20228b:	89 45 fa             	mov    %eax,-0x6(%ebp)
  20228e:	66 c7 45 f8 17 00    	movw   $0x17,-0x8(%ebp)
  202294:	0f 01 55 f8          	lgdtl  -0x8(%ebp)
  202298:	ea 9f 22 20 00 08 00 	ljmp   $0x8,$0x20229f
  20229f:	66 b8 10 00          	mov    $0x10,%ax
  2022a3:	8e d0                	mov    %eax,%ss
  2022a5:	8e d8                	mov    %eax,%ds
  2022a7:	8e c0                	mov    %eax,%es
  2022a9:	8e e0                	mov    %eax,%fs
  2022ab:	8e e8                	mov    %eax,%gs
  2022ad:	b8 00 00 00 00       	mov    $0x0,%eax
  2022b2:	c9                   	leave
  2022b3:	c3                   	ret

002022b4 <sos_i8254_set_frequency>:
  2022b4:	55                   	push   %ebp
  2022b5:	89 e5                	mov    %esp,%ebp
  2022b7:	83 ec 10             	sub    $0x10,%esp
  2022ba:	83 7d 08 00          	cmpl   $0x0,0x8(%ebp)
  2022be:	75 07                	jne    2022c7 <sos_i8254_set_frequency+0x13>
  2022c0:	b8 ff ff ff ff       	mov    $0xffffffff,%eax
  2022c5:	eb 5c                	jmp    202323 <sos_i8254_set_frequency+0x6f>
  2022c7:	b8 dc 34 12 00       	mov    $0x1234dc,%eax
  2022cc:	ba 00 00 00 00       	mov    $0x0,%edx
  2022d1:	f7 75 08             	divl   0x8(%ebp)
  2022d4:	89 45 fc             	mov    %eax,-0x4(%ebp)
  2022d7:	81 7d fc 00 00 01 00 	cmpl   $0x10000,-0x4(%ebp)
  2022de:	76 07                	jbe    2022e7 <sos_i8254_set_frequency+0x33>
  2022e0:	b8 ff ff ff ff       	mov    $0xffffffff,%eax
  2022e5:	eb 3c                	jmp    202323 <sos_i8254_set_frequency+0x6f>
  2022e7:	83 7d fc 00          	cmpl   $0x0,-0x4(%ebp)
  2022eb:	75 07                	jne    2022f4 <sos_i8254_set_frequency+0x40>
  2022ed:	b8 ff ff ff ff       	mov    $0xffffffff,%eax
  2022f2:	eb 2f                	jmp    202323 <sos_i8254_set_frequency+0x6f>
  2022f4:	81 7d fc 00 00 01 00 	cmpl   $0x10000,-0x4(%ebp)
  2022fb:	75 07                	jne    202304 <sos_i8254_set_frequency+0x50>
  2022fd:	c7 45 fc 00 00 00 00 	movl   $0x0,-0x4(%ebp)
  202304:	b8 34 00 00 00       	mov    $0x34,%eax
  202309:	e6 43                	out    %al,$0x43
  20230b:	8b 45 fc             	mov    -0x4(%ebp),%eax
  20230e:	0f b6 c0             	movzbl %al,%eax
  202311:	e6 40                	out    %al,$0x40
  202313:	8b 45 fc             	mov    -0x4(%ebp),%eax
  202316:	c1 e8 08             	shr    $0x8,%eax
  202319:	0f b6 c0             	movzbl %al,%eax
  20231c:	e6 40                	out    %al,$0x40
  20231e:	b8 00 00 00 00       	mov    $0x0,%eax
  202323:	c9                   	leave
  202324:	c3                   	ret

00202325 <sos_i8259_setup>:
  202325:	55                   	push   %ebp
  202326:	89 e5                	mov    %esp,%ebp
  202328:	b8 11 00 00 00       	mov    $0x11,%eax
  20232d:	e6 20                	out    %al,$0x20
  20232f:	b8 11 00 00 00       	mov    $0x11,%eax
  202334:	e6 a0                	out    %al,$0xa0
  202336:	b8 20 00 00 00       	mov    $0x20,%eax
  20233b:	e6 21                	out    %al,$0x21
  20233d:	b8 28 00 00 00       	mov    $0x28,%eax
  202342:	e6 a1                	out    %al,$0xa1
  202344:	b8 04 00 00 00       	mov    $0x4,%eax
  202349:	e6 21                	out    %al,$0x21
  20234b:	b8 02 00 00 00       	mov    $0x2,%eax
  202350:	e6 a1                	out    %al,$0xa1
  202352:	b8 01 00 00 00       	mov    $0x1,%eax
  202357:	e6 21                	out    %al,$0x21
  202359:	b8 01 00 00 00       	mov    $0x1,%eax
  20235e:	e6 a1                	out    %al,$0xa1
  202360:	b8 fb 00 00 00       	mov    $0xfb,%eax
  202365:	e6 21                	out    %al,$0x21
  202367:	b8 ff 00 00 00       	mov    $0xff,%eax
  20236c:	e6 a1                	out    %al,$0xa1
  20236e:	b8 00 00 00 00       	mov    $0x0,%eax
  202373:	5d                   	pop    %ebp
  202374:	c3                   	ret

00202375 <sos_i8259_enable_irq_line>:
  202375:	55                   	push   %ebp
  202376:	89 e5                	mov    %esp,%ebp
  202378:	53                   	push   %ebx
  202379:	83 ec 10             	sub    $0x10,%esp
  20237c:	83 7d 08 07          	cmpl   $0x7,0x8(%ebp)
  202380:	7f 22                	jg     2023a4 <sos_i8259_enable_irq_line+0x2f>
  202382:	e4 21                	in     $0x21,%al
  202384:	88 45 fa             	mov    %al,-0x6(%ebp)
  202387:	0f b6 45 fa          	movzbl -0x6(%ebp),%eax
  20238b:	0f b6 d0             	movzbl %al,%edx
  20238e:	8b 45 08             	mov    0x8(%ebp),%eax
  202391:	bb 01 00 00 00       	mov    $0x1,%ebx
  202396:	89 c1                	mov    %eax,%ecx
  202398:	d3 e3                	shl    %cl,%ebx
  20239a:	89 d8                	mov    %ebx,%eax
  20239c:	f7 d0                	not    %eax
  20239e:	21 d0                	and    %edx,%eax
  2023a0:	e6 21                	out    %al,$0x21
  2023a2:	eb 23                	jmp    2023c7 <sos_i8259_enable_irq_line+0x52>
  2023a4:	e4 a1                	in     $0xa1,%al
  2023a6:	88 45 fb             	mov    %al,-0x5(%ebp)
  2023a9:	0f b6 45 fb          	movzbl -0x5(%ebp),%eax
  2023ad:	0f b6 c0             	movzbl %al,%eax
  2023b0:	8b 55 08             	mov    0x8(%ebp),%edx
  2023b3:	83 ea 08             	sub    $0x8,%edx
  2023b6:	bb 01 00 00 00       	mov    $0x1,%ebx
  2023bb:	89 d1                	mov    %edx,%ecx
  2023bd:	d3 e3                	shl    %cl,%ebx
  2023bf:	89 da                	mov    %ebx,%edx
  2023c1:	f7 d2                	not    %edx
  2023c3:	21 d0                	and    %edx,%eax
  2023c5:	e6 a1                	out    %al,$0xa1
  2023c7:	b8 00 00 00 00       	mov    $0x0,%eax
  2023cc:	8b 5d fc             	mov    -0x4(%ebp),%ebx
  2023cf:	c9                   	leave
  2023d0:	c3                   	ret

002023d1 <sos_i8259_disable_irq_line>:
  2023d1:	55                   	push   %ebp
  2023d2:	89 e5                	mov    %esp,%ebp
  2023d4:	53                   	push   %ebx
  2023d5:	83 ec 10             	sub    $0x10,%esp
  2023d8:	83 7d 08 07          	cmpl   $0x7,0x8(%ebp)
  2023dc:	7f 20                	jg     2023fe <sos_i8259_disable_irq_line+0x2d>
  2023de:	e4 21                	in     $0x21,%al
  2023e0:	88 45 fa             	mov    %al,-0x6(%ebp)
  2023e3:	0f b6 45 fa          	movzbl -0x6(%ebp),%eax
  2023e7:	0f b6 d0             	movzbl %al,%edx
  2023ea:	8b 45 08             	mov    0x8(%ebp),%eax
  2023ed:	bb 01 00 00 00       	mov    $0x1,%ebx
  2023f2:	89 c1                	mov    %eax,%ecx
  2023f4:	d3 e3                	shl    %cl,%ebx
  2023f6:	89 d8                	mov    %ebx,%eax
  2023f8:	09 d0                	or     %edx,%eax
  2023fa:	e6 21                	out    %al,$0x21
  2023fc:	eb 21                	jmp    20241f <sos_i8259_disable_irq_line+0x4e>
  2023fe:	e4 a1                	in     $0xa1,%al
  202400:	88 45 fb             	mov    %al,-0x5(%ebp)
  202403:	0f b6 45 fb          	movzbl -0x5(%ebp),%eax
  202407:	0f b6 c0             	movzbl %al,%eax
  20240a:	8b 55 08             	mov    0x8(%ebp),%edx
  20240d:	83 ea 08             	sub    $0x8,%edx
  202410:	bb 01 00 00 00       	mov    $0x1,%ebx
  202415:	89 d1                	mov    %edx,%ecx
  202417:	d3 e3                	shl    %cl,%ebx
  202419:	89 da                	mov    %ebx,%edx
  20241b:	09 d0                	or     %edx,%eax
  20241d:	e6 a1                	out    %al,$0xa1
  20241f:	b8 00 00 00 00       	mov    $0x0,%eax
  202424:	8b 5d fc             	mov    -0x4(%ebp),%ebx
  202427:	c9                   	leave
  202428:	c3                   	ret

00202429 <sos_idt_setup>:
  202429:	55                   	push   %ebp
  20242a:	89 e5                	mov    %esp,%ebp
  20242c:	83 ec 18             	sub    $0x18,%esp
  20242f:	c7 45 f4 00 00 00 00 	movl   $0x0,-0xc(%ebp)
  202436:	eb 71                	jmp    2024a9 <sos_idt_setup+0x80>
  202438:	8b 45 f4             	mov    -0xc(%ebp),%eax
  20243b:	c1 e0 03             	shl    $0x3,%eax
  20243e:	05 80 90 20 00       	add    $0x209080,%eax
  202443:	89 45 f0             	mov    %eax,-0x10(%ebp)
  202446:	8b 45 f0             	mov    -0x10(%ebp),%eax
  202449:	66 c7 40 02 08 00    	movw   $0x8,0x2(%eax)
  20244f:	8b 45 f0             	mov    -0x10(%ebp),%eax
  202452:	0f b6 50 04          	movzbl 0x4(%eax),%edx
  202456:	83 e2 e0             	and    $0xffffffe0,%edx
  202459:	88 50 04             	mov    %dl,0x4(%eax)
  20245c:	8b 45 f0             	mov    -0x10(%ebp),%eax
  20245f:	0f b6 50 04          	movzbl 0x4(%eax),%edx
  202463:	83 e2 1f             	and    $0x1f,%edx
  202466:	88 50 04             	mov    %dl,0x4(%eax)
  202469:	8b 45 f0             	mov    -0x10(%ebp),%eax
  20246c:	0f b6 50 05          	movzbl 0x5(%eax),%edx
  202470:	83 e2 f8             	and    $0xfffffff8,%edx
  202473:	83 ca 06             	or     $0x6,%edx
  202476:	88 50 05             	mov    %dl,0x5(%eax)
  202479:	8b 45 f0             	mov    -0x10(%ebp),%eax
  20247c:	0f b6 50 05          	movzbl 0x5(%eax),%edx
  202480:	83 ca 08             	or     $0x8,%edx
  202483:	88 50 05             	mov    %dl,0x5(%eax)
  202486:	8b 45 f0             	mov    -0x10(%ebp),%eax
  202489:	0f b6 50 05          	movzbl 0x5(%eax),%edx
  20248d:	83 e2 ef             	and    $0xffffffef,%edx
  202490:	88 50 05             	mov    %dl,0x5(%eax)
  202493:	83 ec 04             	sub    $0x4,%esp
  202496:	6a 00                	push   $0x0
  202498:	6a 00                	push   $0x0
  20249a:	ff 75 f4             	push   -0xc(%ebp)
  20249d:	e8 29 00 00 00       	call   2024cb <sos_idt_set_wrapper>
  2024a2:	83 c4 10             	add    $0x10,%esp
  2024a5:	83 45 f4 01          	addl   $0x1,-0xc(%ebp)
  2024a9:	81 7d f4 ff 00 00 00 	cmpl   $0xff,-0xc(%ebp)
  2024b0:	7e 86                	jle    202438 <sos_idt_setup+0xf>
  2024b2:	b8 80 90 20 00       	mov    $0x209080,%eax
  2024b7:	89 45 ea             	mov    %eax,-0x16(%ebp)
  2024ba:	66 c7 45 e8 ff 07    	movw   $0x7ff,-0x18(%ebp)
  2024c0:	0f 01 5d e8          	lidtl  -0x18(%ebp)
  2024c4:	b8 00 00 00 00       	mov    $0x0,%eax
  2024c9:	c9                   	leave
  2024ca:	c3                   	ret

002024cb <sos_idt_set_wrapper>:
  2024cb:	55                   	push   %ebp
  2024cc:	89 e5                	mov    %esp,%ebp
  2024ce:	83 ec 10             	sub    $0x10,%esp
  2024d1:	83 7d 08 00          	cmpl   $0x0,0x8(%ebp)
  2024d5:	78 09                	js     2024e0 <sos_idt_set_wrapper+0x15>
  2024d7:	81 7d 08 ff 00 00 00 	cmpl   $0xff,0x8(%ebp)
  2024de:	7e 0a                	jle    2024ea <sos_idt_set_wrapper+0x1f>
  2024e0:	b8 ff ff ff ff       	mov    $0xffffffff,%eax
  2024e5:	e9 a0 00 00 00       	jmp    20258a <sos_idt_set_wrapper+0xbf>
  2024ea:	83 7d 10 00          	cmpl   $0x0,0x10(%ebp)
  2024ee:	78 06                	js     2024f6 <sos_idt_set_wrapper+0x2b>
  2024f0:	83 7d 10 03          	cmpl   $0x3,0x10(%ebp)
  2024f4:	7e 0a                	jle    202500 <sos_idt_set_wrapper+0x35>
  2024f6:	b8 ff ff ff ff       	mov    $0xffffffff,%eax
  2024fb:	e9 8a 00 00 00       	jmp    20258a <sos_idt_set_wrapper+0xbf>
  202500:	8b 45 08             	mov    0x8(%ebp),%eax
  202503:	c1 e0 03             	shl    $0x3,%eax
  202506:	05 80 90 20 00       	add    $0x209080,%eax
  20250b:	89 45 fc             	mov    %eax,-0x4(%ebp)
  20250e:	83 7d 0c 00          	cmpl   $0x0,0xc(%ebp)
  202512:	74 46                	je     20255a <sos_idt_set_wrapper+0x8f>
  202514:	8b 45 0c             	mov    0xc(%ebp),%eax
  202517:	89 c2                	mov    %eax,%edx
  202519:	8b 45 fc             	mov    -0x4(%ebp),%eax
  20251c:	66 89 10             	mov    %dx,(%eax)
  20251f:	8b 45 0c             	mov    0xc(%ebp),%eax
  202522:	c1 e8 10             	shr    $0x10,%eax
  202525:	89 c2                	mov    %eax,%edx
  202527:	8b 45 fc             	mov    -0x4(%ebp),%eax
  20252a:	66 89 50 06          	mov    %dx,0x6(%eax)
  20252e:	8b 45 10             	mov    0x10(%ebp),%eax
  202531:	83 e0 03             	and    $0x3,%eax
  202534:	8b 55 fc             	mov    -0x4(%ebp),%edx
  202537:	83 e0 03             	and    $0x3,%eax
  20253a:	c1 e0 05             	shl    $0x5,%eax
  20253d:	89 c1                	mov    %eax,%ecx
  20253f:	0f b6 42 05          	movzbl 0x5(%edx),%eax
  202543:	83 e0 9f             	and    $0xffffff9f,%eax
  202546:	09 c8                	or     %ecx,%eax
  202548:	88 42 05             	mov    %al,0x5(%edx)
  20254b:	8b 45 fc             	mov    -0x4(%ebp),%eax
  20254e:	0f b6 50 05          	movzbl 0x5(%eax),%edx
  202552:	83 ca 80             	or     $0xffffff80,%edx
  202555:	88 50 05             	mov    %dl,0x5(%eax)
  202558:	eb 2b                	jmp    202585 <sos_idt_set_wrapper+0xba>
  20255a:	8b 45 fc             	mov    -0x4(%ebp),%eax
  20255d:	66 c7 00 00 00       	movw   $0x0,(%eax)
  202562:	8b 45 fc             	mov    -0x4(%ebp),%eax
  202565:	66 c7 40 06 00 00    	movw   $0x0,0x6(%eax)
  20256b:	8b 45 fc             	mov    -0x4(%ebp),%eax
  20256e:	0f b6 50 05          	movzbl 0x5(%eax),%edx
  202572:	83 e2 9f             	and    $0xffffff9f,%edx
  202575:	88 50 05             	mov    %dl,0x5(%eax)
  202578:	8b 45 fc             	mov    -0x4(%ebp),%eax
  20257b:	0f b6 50 05          	movzbl 0x5(%eax),%edx
  20257f:	83 e2 7f             	and    $0x7f,%edx
  202582:	88 50 05             	mov    %dl,0x5(%eax)
  202585:	b8 00 00 00 00       	mov    $0x0,%eax
  20258a:	c9                   	leave
  20258b:	c3                   	ret

0020258c <sos_idt_get_wrapper>:
  20258c:	55                   	push   %ebp
  20258d:	89 e5                	mov    %esp,%ebp
  20258f:	83 7d 08 00          	cmpl   $0x0,0x8(%ebp)
  202593:	78 09                	js     20259e <sos_idt_get_wrapper+0x12>
  202595:	81 7d 08 ff 00 00 00 	cmpl   $0xff,0x8(%ebp)
  20259c:	7e 07                	jle    2025a5 <sos_idt_get_wrapper+0x19>
  20259e:	b8 ff ff ff ff       	mov    $0xffffffff,%eax
  2025a3:	eb 52                	jmp    2025f7 <sos_idt_get_wrapper+0x6b>
  2025a5:	83 7d 0c 00          	cmpl   $0x0,0xc(%ebp)
  2025a9:	74 28                	je     2025d3 <sos_idt_get_wrapper+0x47>
  2025ab:	8b 45 08             	mov    0x8(%ebp),%eax
  2025ae:	0f b7 04 c5 80 90 20 	movzwl 0x209080(,%eax,8),%eax
  2025b5:	00 
  2025b6:	0f b7 d0             	movzwl %ax,%edx
  2025b9:	8b 45 08             	mov    0x8(%ebp),%eax
  2025bc:	0f b7 04 c5 86 90 20 	movzwl 0x209086(,%eax,8),%eax
  2025c3:	00 
  2025c4:	0f b7 c0             	movzwl %ax,%eax
  2025c7:	c1 e0 10             	shl    $0x10,%eax
  2025ca:	09 d0                	or     %edx,%eax
  2025cc:	89 c2                	mov    %eax,%edx
  2025ce:	8b 45 0c             	mov    0xc(%ebp),%eax
  2025d1:	89 10                	mov    %edx,(%eax)
  2025d3:	83 7d 10 00          	cmpl   $0x0,0x10(%ebp)
  2025d7:	74 19                	je     2025f2 <sos_idt_get_wrapper+0x66>
  2025d9:	8b 45 08             	mov    0x8(%ebp),%eax
  2025dc:	0f b6 04 c5 85 90 20 	movzbl 0x209085(,%eax,8),%eax
  2025e3:	00 
  2025e4:	c0 e8 05             	shr    $0x5,%al
  2025e7:	83 e0 03             	and    $0x3,%eax
  2025ea:	0f b6 d0             	movzbl %al,%edx
  2025ed:	8b 45 10             	mov    0x10(%ebp),%eax
  2025f0:	89 10                	mov    %edx,(%eax)
  2025f2:	b8 00 00 00 00       	mov    $0x0,%eax
  2025f7:	5d                   	pop    %ebp
  2025f8:	c3                   	ret

002025f9 <sos_irq_setup>:
  2025f9:	55                   	push   %ebp
  2025fa:	89 e5                	mov    %esp,%ebp
  2025fc:	83 ec 08             	sub    $0x8,%esp
  2025ff:	e8 21 fd ff ff       	call   202325 <sos_i8259_setup>
  202604:	c9                   	leave
  202605:	c3                   	ret

00202606 <sos_irq_set_routine>:
  202606:	55                   	push   %ebp
  202607:	89 e5                	mov    %esp,%ebp
  202609:	83 ec 18             	sub    $0x18,%esp
  20260c:	83 7d 08 00          	cmpl   $0x0,0x8(%ebp)
  202610:	78 06                	js     202618 <sos_irq_set_routine+0x12>
  202612:	83 7d 08 0f          	cmpl   $0xf,0x8(%ebp)
  202616:	7e 0a                	jle    202622 <sos_irq_set_routine+0x1c>
  202618:	b8 ff ff ff ff       	mov    $0xffffffff,%eax
  20261d:	e9 a4 00 00 00       	jmp    2026c6 <sos_irq_set_routine+0xc0>
  202622:	9c                   	pushf
  202623:	58                   	pop    %eax
  202624:	89 45 f0             	mov    %eax,-0x10(%ebp)
  202627:	fa                   	cli
  202628:	c7 45 f4 00 00 00 00 	movl   $0x0,-0xc(%ebp)
  20262f:	8b 45 08             	mov    0x8(%ebp),%eax
  202632:	8b 55 0c             	mov    0xc(%ebp),%edx
  202635:	89 14 85 80 98 20 00 	mov    %edx,0x209880(,%eax,4)
  20263c:	83 7d 0c 00          	cmpl   $0x0,0xc(%ebp)
  202640:	74 38                	je     20267a <sos_irq_set_routine+0x74>
  202642:	8b 45 08             	mov    0x8(%ebp),%eax
  202645:	8b 04 85 a0 40 20 00 	mov    0x2040a0(,%eax,4),%eax
  20264c:	8b 55 08             	mov    0x8(%ebp),%edx
  20264f:	83 c2 20             	add    $0x20,%edx
  202652:	83 ec 04             	sub    $0x4,%esp
  202655:	6a 00                	push   $0x0
  202657:	50                   	push   %eax
  202658:	52                   	push   %edx
  202659:	e8 6d fe ff ff       	call   2024cb <sos_idt_set_wrapper>
  20265e:	83 c4 10             	add    $0x10,%esp
  202661:	89 45 f4             	mov    %eax,-0xc(%ebp)
  202664:	83 7d f4 00          	cmpl   $0x0,-0xc(%ebp)
  202668:	74 29                	je     202693 <sos_irq_set_routine+0x8d>
  20266a:	8b 45 08             	mov    0x8(%ebp),%eax
  20266d:	c7 04 85 80 98 20 00 	movl   $0x0,0x209880(,%eax,4)
  202674:	00 00 00 00 
  202678:	eb 19                	jmp    202693 <sos_irq_set_routine+0x8d>
  20267a:	8b 45 08             	mov    0x8(%ebp),%eax
  20267d:	83 c0 20             	add    $0x20,%eax
  202680:	83 ec 04             	sub    $0x4,%esp
  202683:	6a 00                	push   $0x0
  202685:	6a 00                	push   $0x0
  202687:	50                   	push   %eax
  202688:	e8 3e fe ff ff       	call   2024cb <sos_idt_set_wrapper>
  20268d:	83 c4 10             	add    $0x10,%esp
  202690:	89 45 f4             	mov    %eax,-0xc(%ebp)
  202693:	8b 45 08             	mov    0x8(%ebp),%eax
  202696:	8b 04 85 80 98 20 00 	mov    0x209880(,%eax,4),%eax
  20269d:	85 c0                	test   %eax,%eax
  20269f:	74 10                	je     2026b1 <sos_irq_set_routine+0xab>
  2026a1:	83 ec 0c             	sub    $0xc,%esp
  2026a4:	ff 75 08             	push   0x8(%ebp)
  2026a7:	e8 c9 fc ff ff       	call   202375 <sos_i8259_enable_irq_line>
  2026ac:	83 c4 10             	add    $0x10,%esp
  2026af:	eb 0e                	jmp    2026bf <sos_irq_set_routine+0xb9>
  2026b1:	83 ec 0c             	sub    $0xc,%esp
  2026b4:	ff 75 08             	push   0x8(%ebp)
  2026b7:	e8 15 fd ff ff       	call   2023d1 <sos_i8259_disable_irq_line>
  2026bc:	83 c4 10             	add    $0x10,%esp
  2026bf:	ff 75 f0             	push   -0x10(%ebp)
  2026c2:	9d                   	popf
  2026c3:	8b 45 f4             	mov    -0xc(%ebp),%eax
  2026c6:	c9                   	leave
  2026c7:	c3                   	ret

002026c8 <sos_irq_get_routine>:
  2026c8:	55                   	push   %ebp
  2026c9:	89 e5                	mov    %esp,%ebp
  2026cb:	83 7d 08 00          	cmpl   $0x0,0x8(%ebp)
  2026cf:	78 06                	js     2026d7 <sos_irq_get_routine+0xf>
  2026d1:	83 7d 08 0f          	cmpl   $0xf,0x8(%ebp)
  2026d5:	7e 07                	jle    2026de <sos_irq_get_routine+0x16>
  2026d7:	b8 00 00 00 00       	mov    $0x0,%eax
  2026dc:	eb 0a                	jmp    2026e8 <sos_irq_get_routine+0x20>
  2026de:	8b 45 08             	mov    0x8(%ebp),%eax
  2026e1:	8b 04 85 80 98 20 00 	mov    0x209880(,%eax,4),%eax
  2026e8:	5d                   	pop    %ebp
  2026e9:	c3                   	ret

002026ea <memcpy>:
  2026ea:	55                   	push   %ebp
  2026eb:	89 e5                	mov    %esp,%ebp
  2026ed:	83 ec 10             	sub    $0x10,%esp
  2026f0:	8b 45 10             	mov    0x10(%ebp),%eax
  2026f3:	8b 55 08             	mov    0x8(%ebp),%edx
  2026f6:	89 55 fc             	mov    %edx,-0x4(%ebp)
  2026f9:	8b 55 0c             	mov    0xc(%ebp),%edx
  2026fc:	89 55 f8             	mov    %edx,-0x8(%ebp)
  2026ff:	eb 16                	jmp    202717 <memcpy+0x2d>
  202701:	8b 55 f8             	mov    -0x8(%ebp),%edx
  202704:	0f b6 0a             	movzbl (%edx),%ecx
  202707:	8b 55 fc             	mov    -0x4(%ebp),%edx
  20270a:	88 0a                	mov    %cl,(%edx)
  20270c:	83 45 fc 01          	addl   $0x1,-0x4(%ebp)
  202710:	83 45 f8 01          	addl   $0x1,-0x8(%ebp)
  202714:	83 e8 01             	sub    $0x1,%eax
  202717:	85 c0                	test   %eax,%eax
  202719:	75 e6                	jne    202701 <memcpy+0x17>
  20271b:	8b 45 08             	mov    0x8(%ebp),%eax
  20271e:	c9                   	leave
  20271f:	c3                   	ret

00202720 <memset>:
  202720:	55                   	push   %ebp
  202721:	89 e5                	mov    %esp,%ebp
  202723:	83 ec 10             	sub    $0x10,%esp
  202726:	8b 45 10             	mov    0x10(%ebp),%eax
  202729:	8b 55 08             	mov    0x8(%ebp),%edx
  20272c:	89 55 fc             	mov    %edx,-0x4(%ebp)
  20272f:	eb 10                	jmp    202741 <memset+0x21>
  202731:	0f b6 4d 0c          	movzbl 0xc(%ebp),%ecx
  202735:	8b 55 fc             	mov    -0x4(%ebp),%edx
  202738:	88 0a                	mov    %cl,(%edx)
  20273a:	83 45 fc 01          	addl   $0x1,-0x4(%ebp)
  20273e:	83 e8 01             	sub    $0x1,%eax
  202741:	85 c0                	test   %eax,%eax
  202743:	75 ec                	jne    202731 <memset+0x11>
  202745:	8b 45 08             	mov    0x8(%ebp),%eax
  202748:	c9                   	leave
  202749:	c3                   	ret

0020274a <memcmp>:
  20274a:	55                   	push   %ebp
  20274b:	89 e5                	mov    %esp,%ebp
  20274d:	83 ec 10             	sub    $0x10,%esp
  202750:	c7 45 f4 00 00 00 00 	movl   $0x0,-0xc(%ebp)
  202757:	8b 45 08             	mov    0x8(%ebp),%eax
  20275a:	89 45 fc             	mov    %eax,-0x4(%ebp)
  20275d:	8b 45 0c             	mov    0xc(%ebp),%eax
  202760:	89 45 f8             	mov    %eax,-0x8(%ebp)
  202763:	eb 32                	jmp    202797 <memcmp+0x4d>
  202765:	8b 45 fc             	mov    -0x4(%ebp),%eax
  202768:	0f b6 10             	movzbl (%eax),%edx
  20276b:	8b 45 f8             	mov    -0x8(%ebp),%eax
  20276e:	0f b6 00             	movzbl (%eax),%eax
  202771:	38 c2                	cmp    %al,%dl
  202773:	74 16                	je     20278b <memcmp+0x41>
  202775:	8b 45 fc             	mov    -0x4(%ebp),%eax
  202778:	0f b6 00             	movzbl (%eax),%eax
  20277b:	0f b6 d0             	movzbl %al,%edx
  20277e:	8b 45 f8             	mov    -0x8(%ebp),%eax
  202781:	0f b6 00             	movzbl (%eax),%eax
  202784:	0f b6 c0             	movzbl %al,%eax
  202787:	29 c2                	sub    %eax,%edx
  202789:	eb 19                	jmp    2027a4 <memcmp+0x5a>
  20278b:	83 45 f4 01          	addl   $0x1,-0xc(%ebp)
  20278f:	83 45 fc 01          	addl   $0x1,-0x4(%ebp)
  202793:	83 45 f8 01          	addl   $0x1,-0x8(%ebp)
  202797:	8b 45 f4             	mov    -0xc(%ebp),%eax
  20279a:	3b 45 10             	cmp    0x10(%ebp),%eax
  20279d:	72 c6                	jb     202765 <memcmp+0x1b>
  20279f:	ba 00 00 00 00       	mov    $0x0,%edx
  2027a4:	89 d0                	mov    %edx,%eax
  2027a6:	c9                   	leave
  2027a7:	c3                   	ret

002027a8 <strlen>:
  2027a8:	55                   	push   %ebp
  2027a9:	89 e5                	mov    %esp,%ebp
  2027ab:	83 ec 10             	sub    $0x10,%esp
  2027ae:	8b 55 08             	mov    0x8(%ebp),%edx
  2027b1:	c7 45 fc 00 00 00 00 	movl   $0x0,-0x4(%ebp)
  2027b8:	eb 04                	jmp    2027be <strlen+0x16>
  2027ba:	83 45 fc 01          	addl   $0x1,-0x4(%ebp)
  2027be:	89 d0                	mov    %edx,%eax
  2027c0:	8d 50 01             	lea    0x1(%eax),%edx
  2027c3:	0f b6 00             	movzbl (%eax),%eax
  2027c6:	84 c0                	test   %al,%al
  2027c8:	75 f0                	jne    2027ba <strlen+0x12>
  2027ca:	8b 45 fc             	mov    -0x4(%ebp),%eax
  2027cd:	c9                   	leave
  2027ce:	c3                   	ret

002027cf <strnlen>:
  2027cf:	55                   	push   %ebp
  2027d0:	89 e5                	mov    %esp,%ebp
  2027d2:	83 ec 10             	sub    $0x10,%esp
  2027d5:	8b 45 08             	mov    0x8(%ebp),%eax
  2027d8:	89 45 fc             	mov    %eax,-0x4(%ebp)
  2027db:	eb 05                	jmp    2027e2 <strnlen+0x13>
  2027dd:	90                   	nop
  2027de:	83 45 fc 01          	addl   $0x1,-0x4(%ebp)
  2027e2:	8b 45 0c             	mov    0xc(%ebp),%eax
  2027e5:	8d 50 ff             	lea    -0x1(%eax),%edx
  2027e8:	89 55 0c             	mov    %edx,0xc(%ebp)
  2027eb:	85 c0                	test   %eax,%eax
  2027ed:	74 0a                	je     2027f9 <strnlen+0x2a>
  2027ef:	8b 45 fc             	mov    -0x4(%ebp),%eax
  2027f2:	0f b6 00             	movzbl (%eax),%eax
  2027f5:	84 c0                	test   %al,%al
  2027f7:	75 e4                	jne    2027dd <strnlen+0xe>
  2027f9:	8b 45 fc             	mov    -0x4(%ebp),%eax
  2027fc:	2b 45 08             	sub    0x8(%ebp),%eax
  2027ff:	c9                   	leave
  202800:	c3                   	ret

00202801 <strzcpy>:
  202801:	55                   	push   %ebp
  202802:	89 e5                	mov    %esp,%ebp
  202804:	56                   	push   %esi
  202805:	53                   	push   %ebx
  202806:	83 ec 10             	sub    $0x10,%esp
  202809:	8b 45 08             	mov    0x8(%ebp),%eax
  20280c:	8b 75 0c             	mov    0xc(%ebp),%esi
  20280f:	8b 55 10             	mov    0x10(%ebp),%edx
  202812:	85 d2                	test   %edx,%edx
  202814:	7f 02                	jg     202818 <strzcpy+0x17>
  202816:	eb 37                	jmp    20284f <strzcpy+0x4e>
  202818:	c7 45 f4 00 00 00 00 	movl   $0x0,-0xc(%ebp)
  20281f:	eb 21                	jmp    202842 <strzcpy+0x41>
  202821:	8b 4d f4             	mov    -0xc(%ebp),%ecx
  202824:	01 f1                	add    %esi,%ecx
  202826:	8b 5d f4             	mov    -0xc(%ebp),%ebx
  202829:	01 c3                	add    %eax,%ebx
  20282b:	0f b6 09             	movzbl (%ecx),%ecx
  20282e:	88 0b                	mov    %cl,(%ebx)
  202830:	8b 4d f4             	mov    -0xc(%ebp),%ecx
  202833:	01 f1                	add    %esi,%ecx
  202835:	0f b6 09             	movzbl (%ecx),%ecx
  202838:	84 c9                	test   %cl,%cl
  20283a:	75 02                	jne    20283e <strzcpy+0x3d>
  20283c:	eb 11                	jmp    20284f <strzcpy+0x4e>
  20283e:	83 45 f4 01          	addl   $0x1,-0xc(%ebp)
  202842:	39 55 f4             	cmp    %edx,-0xc(%ebp)
  202845:	7c da                	jl     202821 <strzcpy+0x20>
  202847:	83 ea 01             	sub    $0x1,%edx
  20284a:	01 c2                	add    %eax,%edx
  20284c:	c6 02 00             	movb   $0x0,(%edx)
  20284f:	83 c4 10             	add    $0x10,%esp
  202852:	5b                   	pop    %ebx
  202853:	5e                   	pop    %esi
  202854:	5d                   	pop    %ebp
  202855:	c3                   	ret

00202856 <strzcat>:
  202856:	55                   	push   %ebp
  202857:	89 e5                	mov    %esp,%ebp
  202859:	83 ec 10             	sub    $0x10,%esp
  20285c:	8b 45 08             	mov    0x8(%ebp),%eax
  20285f:	89 45 fc             	mov    %eax,-0x4(%ebp)
  202862:	eb 04                	jmp    202868 <strzcat+0x12>
  202864:	83 45 08 01          	addl   $0x1,0x8(%ebp)
  202868:	8b 45 08             	mov    0x8(%ebp),%eax
  20286b:	0f b6 00             	movzbl (%eax),%eax
  20286e:	84 c0                	test   %al,%al
  202870:	75 f2                	jne    202864 <strzcat+0xe>
  202872:	eb 1d                	jmp    202891 <strzcat+0x3b>
  202874:	8b 45 0c             	mov    0xc(%ebp),%eax
  202877:	0f b6 10             	movzbl (%eax),%edx
  20287a:	8b 45 08             	mov    0x8(%ebp),%eax
  20287d:	88 10                	mov    %dl,(%eax)
  20287f:	83 6d 10 01          	subl   $0x1,0x10(%ebp)
  202883:	83 7d 10 00          	cmpl   $0x0,0x10(%ebp)
  202887:	74 14                	je     20289d <strzcat+0x47>
  202889:	83 45 0c 01          	addl   $0x1,0xc(%ebp)
  20288d:	83 45 08 01          	addl   $0x1,0x8(%ebp)
  202891:	8b 45 0c             	mov    0xc(%ebp),%eax
  202894:	0f b6 00             	movzbl (%eax),%eax
  202897:	84 c0                	test   %al,%al
  202899:	75 d9                	jne    202874 <strzcat+0x1e>
  20289b:	eb 01                	jmp    20289e <strzcat+0x48>
  20289d:	90                   	nop
  20289e:	8b 45 08             	mov    0x8(%ebp),%eax
  2028a1:	c6 00 00             	movb   $0x0,(%eax)
  2028a4:	8b 45 fc             	mov    -0x4(%ebp),%eax
  2028a7:	c9                   	leave
  2028a8:	c3                   	ret

002028a9 <strcmp>:
  2028a9:	55                   	push   %ebp
  2028aa:	89 e5                	mov    %esp,%ebp
  2028ac:	53                   	push   %ebx
  2028ad:	8b 45 08             	mov    0x8(%ebp),%eax
  2028b0:	8b 4d 0c             	mov    0xc(%ebp),%ecx
  2028b3:	eb 13                	jmp    2028c8 <strcmp+0x1f>
  2028b5:	89 c2                	mov    %eax,%edx
  2028b7:	8d 42 01             	lea    0x1(%edx),%eax
  2028ba:	0f b6 12             	movzbl (%edx),%edx
  2028bd:	84 d2                	test   %dl,%dl
  2028bf:	75 07                	jne    2028c8 <strcmp+0x1f>
  2028c1:	ba 00 00 00 00       	mov    $0x0,%edx
  2028c6:	eb 20                	jmp    2028e8 <strcmp+0x3f>
  2028c8:	0f b6 18             	movzbl (%eax),%ebx
  2028cb:	89 ca                	mov    %ecx,%edx
  2028cd:	8d 4a 01             	lea    0x1(%edx),%ecx
  2028d0:	0f b6 12             	movzbl (%edx),%edx
  2028d3:	38 d3                	cmp    %dl,%bl
  2028d5:	74 de                	je     2028b5 <strcmp+0xc>
  2028d7:	0f b6 00             	movzbl (%eax),%eax
  2028da:	0f b6 d0             	movzbl %al,%edx
  2028dd:	8d 41 ff             	lea    -0x1(%ecx),%eax
  2028e0:	0f b6 00             	movzbl (%eax),%eax
  2028e3:	0f b6 c0             	movzbl %al,%eax
  2028e6:	29 c2                	sub    %eax,%edx
  2028e8:	89 d0                	mov    %edx,%eax
  2028ea:	8b 5d fc             	mov    -0x4(%ebp),%ebx
  2028ed:	c9                   	leave
  2028ee:	c3                   	ret

002028ef <strncmp>:
  2028ef:	55                   	push   %ebp
  2028f0:	89 e5                	mov    %esp,%ebp
  2028f2:	53                   	push   %ebx
  2028f3:	83 ec 10             	sub    $0x10,%esp
  2028f6:	8b 4d 08             	mov    0x8(%ebp),%ecx
  2028f9:	8b 5d 0c             	mov    0xc(%ebp),%ebx
  2028fc:	8b 45 10             	mov    0x10(%ebp),%eax
  2028ff:	c6 45 fb 00          	movb   $0x0,-0x5(%ebp)
  202903:	c6 45 fa 00          	movb   $0x0,-0x6(%ebp)
  202907:	eb 34                	jmp    20293d <strncmp+0x4e>
  202909:	89 ca                	mov    %ecx,%edx
  20290b:	8d 4a 01             	lea    0x1(%edx),%ecx
  20290e:	0f b6 12             	movzbl (%edx),%edx
  202911:	88 55 fb             	mov    %dl,-0x5(%ebp)
  202914:	89 da                	mov    %ebx,%edx
  202916:	8d 5a 01             	lea    0x1(%edx),%ebx
  202919:	0f b6 12             	movzbl (%edx),%edx
  20291c:	88 55 fa             	mov    %dl,-0x6(%ebp)
  20291f:	80 7d fb 00          	cmpb   $0x0,-0x5(%ebp)
  202923:	74 09                	je     20292e <strncmp+0x3f>
  202925:	0f b6 55 fb          	movzbl -0x5(%ebp),%edx
  202929:	3a 55 fa             	cmp    -0x6(%ebp),%dl
  20292c:	74 0c                	je     20293a <strncmp+0x4b>
  20292e:	0f be 45 fb          	movsbl -0x5(%ebp),%eax
  202932:	0f be 55 fa          	movsbl -0x6(%ebp),%edx
  202936:	29 d0                	sub    %edx,%eax
  202938:	eb 11                	jmp    20294b <strncmp+0x5c>
  20293a:	83 e8 01             	sub    $0x1,%eax
  20293d:	85 c0                	test   %eax,%eax
  20293f:	7f c8                	jg     202909 <strncmp+0x1a>
  202941:	0f be 45 fb          	movsbl -0x5(%ebp),%eax
  202945:	0f be 55 fa          	movsbl -0x6(%ebp),%edx
  202949:	29 d0                	sub    %edx,%eax
  20294b:	8b 5d fc             	mov    -0x4(%ebp),%ebx
  20294e:	c9                   	leave
  20294f:	c3                   	ret

00202950 <vsnprintf>:
  202950:	55                   	push   %ebp
  202951:	89 e5                	mov    %esp,%ebp
  202953:	83 ec 40             	sub    $0x40,%esp
  202956:	83 7d 08 00          	cmpl   $0x0,0x8(%ebp)
  20295a:	74 06                	je     202962 <vsnprintf+0x12>
  20295c:	83 7d 10 00          	cmpl   $0x0,0x10(%ebp)
  202960:	75 0a                	jne    20296c <vsnprintf+0x1c>
  202962:	b8 ff ff ff ff       	mov    $0xffffffff,%eax
  202967:	e9 58 03 00 00       	jmp    202cc4 <vsnprintf+0x374>
  20296c:	c7 45 f8 00 00 00 00 	movl   $0x0,-0x8(%ebp)
  202973:	c7 45 fc 00 00 00 00 	movl   $0x0,-0x4(%ebp)
  20297a:	e9 29 03 00 00       	jmp    202ca8 <vsnprintf+0x358>
  20297f:	8b 55 10             	mov    0x10(%ebp),%edx
  202982:	8b 45 fc             	mov    -0x4(%ebp),%eax
  202985:	01 d0                	add    %edx,%eax
  202987:	0f b6 00             	movzbl (%eax),%eax
  20298a:	0f be c0             	movsbl %al,%eax
  20298d:	83 f8 25             	cmp    $0x25,%eax
  202990:	0f 85 e8 02 00 00    	jne    202c7e <vsnprintf+0x32e>
  202996:	83 45 fc 01          	addl   $0x1,-0x4(%ebp)
  20299a:	8b 55 10             	mov    0x10(%ebp),%edx
  20299d:	8b 45 fc             	mov    -0x4(%ebp),%eax
  2029a0:	01 d0                	add    %edx,%eax
  2029a2:	0f b6 00             	movzbl (%eax),%eax
  2029a5:	0f be c0             	movsbl %al,%eax
  2029a8:	83 f8 25             	cmp    $0x25,%eax
  2029ab:	74 30                	je     2029dd <vsnprintf+0x8d>
  2029ad:	83 f8 25             	cmp    $0x25,%eax
  2029b0:	0f 8c 82 02 00 00    	jl     202c38 <vsnprintf+0x2e8>
  2029b6:	83 f8 78             	cmp    $0x78,%eax
  2029b9:	0f 8f 79 02 00 00    	jg     202c38 <vsnprintf+0x2e8>
  2029bf:	83 f8 63             	cmp    $0x63,%eax
  2029c2:	0f 8c 70 02 00 00    	jl     202c38 <vsnprintf+0x2e8>
  2029c8:	83 e8 63             	sub    $0x63,%eax
  2029cb:	83 f8 15             	cmp    $0x15,%eax
  2029ce:	0f 87 64 02 00 00    	ja     202c38 <vsnprintf+0x2e8>
  2029d4:	8b 04 85 e8 40 20 00 	mov    0x2040e8(,%eax,4),%eax
  2029db:	ff e0                	jmp    *%eax
  2029dd:	8b 45 0c             	mov    0xc(%ebp),%eax
  2029e0:	83 e8 01             	sub    $0x1,%eax
  2029e3:	39 45 f8             	cmp    %eax,-0x8(%ebp)
  2029e6:	73 0c                	jae    2029f4 <vsnprintf+0xa4>
  2029e8:	8b 45 08             	mov    0x8(%ebp),%eax
  2029eb:	8d 50 01             	lea    0x1(%eax),%edx
  2029ee:	89 55 08             	mov    %edx,0x8(%ebp)
  2029f1:	c6 00 25             	movb   $0x25,(%eax)
  2029f4:	83 45 f8 01          	addl   $0x1,-0x8(%ebp)
  2029f8:	e9 7f 02 00 00       	jmp    202c7c <vsnprintf+0x32c>
  2029fd:	83 45 14 04          	addl   $0x4,0x14(%ebp)
  202a01:	8b 45 14             	mov    0x14(%ebp),%eax
  202a04:	8b 40 fc             	mov    -0x4(%eax),%eax
  202a07:	89 45 f4             	mov    %eax,-0xc(%ebp)
  202a0a:	c7 45 f0 00 00 00 00 	movl   $0x0,-0x10(%ebp)
  202a11:	83 7d f4 00          	cmpl   $0x0,-0xc(%ebp)
  202a15:	79 1b                	jns    202a32 <vsnprintf+0xe2>
  202a17:	8b 45 0c             	mov    0xc(%ebp),%eax
  202a1a:	83 e8 01             	sub    $0x1,%eax
  202a1d:	39 45 f8             	cmp    %eax,-0x8(%ebp)
  202a20:	73 0c                	jae    202a2e <vsnprintf+0xde>
  202a22:	8b 45 08             	mov    0x8(%ebp),%eax
  202a25:	8d 50 01             	lea    0x1(%eax),%edx
  202a28:	89 55 08             	mov    %edx,0x8(%ebp)
  202a2b:	c6 00 2d             	movb   $0x2d,(%eax)
  202a2e:	83 45 f8 01          	addl   $0x1,-0x8(%ebp)
  202a32:	8b 4d f4             	mov    -0xc(%ebp),%ecx
  202a35:	ba 67 66 66 66       	mov    $0x66666667,%edx
  202a3a:	89 c8                	mov    %ecx,%eax
  202a3c:	f7 ea                	imul   %edx
  202a3e:	c1 fa 02             	sar    $0x2,%edx
  202a41:	89 c8                	mov    %ecx,%eax
  202a43:	c1 f8 1f             	sar    $0x1f,%eax
  202a46:	29 c2                	sub    %eax,%edx
  202a48:	89 d0                	mov    %edx,%eax
  202a4a:	c1 e0 02             	shl    $0x2,%eax
  202a4d:	01 d0                	add    %edx,%eax
  202a4f:	01 c0                	add    %eax,%eax
  202a51:	29 c1                	sub    %eax,%ecx
  202a53:	89 ca                	mov    %ecx,%edx
  202a55:	89 55 d8             	mov    %edx,-0x28(%ebp)
  202a58:	8b 45 d8             	mov    -0x28(%ebp),%eax
  202a5b:	89 c2                	mov    %eax,%edx
  202a5d:	f7 da                	neg    %edx
  202a5f:	0f 49 c2             	cmovns %edx,%eax
  202a62:	89 45 d8             	mov    %eax,-0x28(%ebp)
  202a65:	8b 45 d8             	mov    -0x28(%ebp),%eax
  202a68:	8d 48 30             	lea    0x30(%eax),%ecx
  202a6b:	8b 45 f0             	mov    -0x10(%ebp),%eax
  202a6e:	8d 50 01             	lea    0x1(%eax),%edx
  202a71:	89 55 f0             	mov    %edx,-0x10(%ebp)
  202a74:	89 ca                	mov    %ecx,%edx
  202a76:	88 54 05 c4          	mov    %dl,-0x3c(%ebp,%eax,1)
  202a7a:	8b 4d f4             	mov    -0xc(%ebp),%ecx
  202a7d:	ba 67 66 66 66       	mov    $0x66666667,%edx
  202a82:	89 c8                	mov    %ecx,%eax
  202a84:	f7 ea                	imul   %edx
  202a86:	89 d0                	mov    %edx,%eax
  202a88:	c1 f8 02             	sar    $0x2,%eax
  202a8b:	c1 f9 1f             	sar    $0x1f,%ecx
  202a8e:	89 ca                	mov    %ecx,%edx
  202a90:	29 d0                	sub    %edx,%eax
  202a92:	89 45 f4             	mov    %eax,-0xc(%ebp)
  202a95:	83 7d f4 00          	cmpl   $0x0,-0xc(%ebp)
  202a99:	75 97                	jne    202a32 <vsnprintf+0xe2>
  202a9b:	83 6d f0 01          	subl   $0x1,-0x10(%ebp)
  202a9f:	eb 29                	jmp    202aca <vsnprintf+0x17a>
  202aa1:	8b 45 0c             	mov    0xc(%ebp),%eax
  202aa4:	83 e8 01             	sub    $0x1,%eax
  202aa7:	39 45 f8             	cmp    %eax,-0x8(%ebp)
  202aaa:	73 16                	jae    202ac2 <vsnprintf+0x172>
  202aac:	8b 45 08             	mov    0x8(%ebp),%eax
  202aaf:	8d 50 01             	lea    0x1(%eax),%edx
  202ab2:	89 55 08             	mov    %edx,0x8(%ebp)
  202ab5:	8d 4d c4             	lea    -0x3c(%ebp),%ecx
  202ab8:	8b 55 f0             	mov    -0x10(%ebp),%edx
  202abb:	01 ca                	add    %ecx,%edx
  202abd:	0f b6 12             	movzbl (%edx),%edx
  202ac0:	88 10                	mov    %dl,(%eax)
  202ac2:	83 45 f8 01          	addl   $0x1,-0x8(%ebp)
  202ac6:	83 6d f0 01          	subl   $0x1,-0x10(%ebp)
  202aca:	83 7d f0 00          	cmpl   $0x0,-0x10(%ebp)
  202ace:	79 d1                	jns    202aa1 <vsnprintf+0x151>
  202ad0:	e9 a7 01 00 00       	jmp    202c7c <vsnprintf+0x32c>
  202ad5:	83 45 14 04          	addl   $0x4,0x14(%ebp)
  202ad9:	8b 45 14             	mov    0x14(%ebp),%eax
  202adc:	8b 40 fc             	mov    -0x4(%eax),%eax
  202adf:	89 45 d4             	mov    %eax,-0x2c(%ebp)
  202ae2:	8b 45 0c             	mov    0xc(%ebp),%eax
  202ae5:	83 e8 01             	sub    $0x1,%eax
  202ae8:	39 45 f8             	cmp    %eax,-0x8(%ebp)
  202aeb:	73 0e                	jae    202afb <vsnprintf+0x1ab>
  202aed:	8b 45 08             	mov    0x8(%ebp),%eax
  202af0:	8d 50 01             	lea    0x1(%eax),%edx
  202af3:	89 55 08             	mov    %edx,0x8(%ebp)
  202af6:	8b 55 d4             	mov    -0x2c(%ebp),%edx
  202af9:	88 10                	mov    %dl,(%eax)
  202afb:	83 45 f8 01          	addl   $0x1,-0x8(%ebp)
  202aff:	e9 78 01 00 00       	jmp    202c7c <vsnprintf+0x32c>
  202b04:	83 45 14 04          	addl   $0x4,0x14(%ebp)
  202b08:	8b 45 14             	mov    0x14(%ebp),%eax
  202b0b:	8b 40 fc             	mov    -0x4(%eax),%eax
  202b0e:	89 45 ec             	mov    %eax,-0x14(%ebp)
  202b11:	83 7d ec 00          	cmpl   $0x0,-0x14(%ebp)
  202b15:	75 2d                	jne    202b44 <vsnprintf+0x1f4>
  202b17:	c7 45 ec e0 40 20 00 	movl   $0x2040e0,-0x14(%ebp)
  202b1e:	eb 24                	jmp    202b44 <vsnprintf+0x1f4>
  202b20:	8b 45 0c             	mov    0xc(%ebp),%eax
  202b23:	83 e8 01             	sub    $0x1,%eax
  202b26:	39 45 f8             	cmp    %eax,-0x8(%ebp)
  202b29:	73 11                	jae    202b3c <vsnprintf+0x1ec>
  202b2b:	8b 45 08             	mov    0x8(%ebp),%eax
  202b2e:	8d 50 01             	lea    0x1(%eax),%edx
  202b31:	89 55 08             	mov    %edx,0x8(%ebp)
  202b34:	8b 55 ec             	mov    -0x14(%ebp),%edx
  202b37:	0f b6 12             	movzbl (%edx),%edx
  202b3a:	88 10                	mov    %dl,(%eax)
  202b3c:	83 45 f8 01          	addl   $0x1,-0x8(%ebp)
  202b40:	83 45 ec 01          	addl   $0x1,-0x14(%ebp)
  202b44:	8b 45 ec             	mov    -0x14(%ebp),%eax
  202b47:	0f b6 00             	movzbl (%eax),%eax
  202b4a:	84 c0                	test   %al,%al
  202b4c:	75 d2                	jne    202b20 <vsnprintf+0x1d0>
  202b4e:	e9 29 01 00 00       	jmp    202c7c <vsnprintf+0x32c>
  202b53:	83 45 14 04          	addl   $0x4,0x14(%ebp)
  202b57:	8b 45 14             	mov    0x14(%ebp),%eax
  202b5a:	83 e8 04             	sub    $0x4,%eax
  202b5d:	8b 00                	mov    (%eax),%eax
  202b5f:	89 45 e0             	mov    %eax,-0x20(%ebp)
  202b62:	c7 45 e4 00 00 00 00 	movl   $0x0,-0x1c(%ebp)
  202b69:	c7 45 e8 00 00 00 00 	movl   $0x0,-0x18(%ebp)
  202b70:	e9 96 00 00 00       	jmp    202c0b <vsnprintf+0x2bb>
  202b75:	8b 45 e8             	mov    -0x18(%ebp),%eax
  202b78:	c1 e0 02             	shl    $0x2,%eax
  202b7b:	8b 55 e0             	mov    -0x20(%ebp),%edx
  202b7e:	89 c1                	mov    %eax,%ecx
  202b80:	d3 e2                	shl    %cl,%edx
  202b82:	89 d0                	mov    %edx,%eax
  202b84:	89 45 dc             	mov    %eax,-0x24(%ebp)
  202b87:	c1 6d dc 1c          	shrl   $0x1c,-0x24(%ebp)
  202b8b:	83 7d dc 00          	cmpl   $0x0,-0x24(%ebp)
  202b8f:	75 23                	jne    202bb4 <vsnprintf+0x264>
  202b91:	83 7d e4 00          	cmpl   $0x0,-0x1c(%ebp)
  202b95:	74 70                	je     202c07 <vsnprintf+0x2b7>
  202b97:	8b 45 0c             	mov    0xc(%ebp),%eax
  202b9a:	83 e8 01             	sub    $0x1,%eax
  202b9d:	39 45 f8             	cmp    %eax,-0x8(%ebp)
  202ba0:	73 0c                	jae    202bae <vsnprintf+0x25e>
  202ba2:	8b 45 08             	mov    0x8(%ebp),%eax
  202ba5:	8d 50 01             	lea    0x1(%eax),%edx
  202ba8:	89 55 08             	mov    %edx,0x8(%ebp)
  202bab:	c6 00 30             	movb   $0x30,(%eax)
  202bae:	83 45 f8 01          	addl   $0x1,-0x8(%ebp)
  202bb2:	eb 53                	jmp    202c07 <vsnprintf+0x2b7>
  202bb4:	c7 45 e4 01 00 00 00 	movl   $0x1,-0x1c(%ebp)
  202bbb:	83 7d dc 09          	cmpl   $0x9,-0x24(%ebp)
  202bbf:	77 24                	ja     202be5 <vsnprintf+0x295>
  202bc1:	8b 45 0c             	mov    0xc(%ebp),%eax
  202bc4:	83 e8 01             	sub    $0x1,%eax
  202bc7:	39 45 f8             	cmp    %eax,-0x8(%ebp)
  202bca:	73 13                	jae    202bdf <vsnprintf+0x28f>
  202bcc:	8b 45 dc             	mov    -0x24(%ebp),%eax
  202bcf:	8d 48 30             	lea    0x30(%eax),%ecx
  202bd2:	8b 45 08             	mov    0x8(%ebp),%eax
  202bd5:	8d 50 01             	lea    0x1(%eax),%edx
  202bd8:	89 55 08             	mov    %edx,0x8(%ebp)
  202bdb:	89 ca                	mov    %ecx,%edx
  202bdd:	88 10                	mov    %dl,(%eax)
  202bdf:	83 45 f8 01          	addl   $0x1,-0x8(%ebp)
  202be3:	eb 22                	jmp    202c07 <vsnprintf+0x2b7>
  202be5:	8b 45 0c             	mov    0xc(%ebp),%eax
  202be8:	83 e8 01             	sub    $0x1,%eax
  202beb:	39 45 f8             	cmp    %eax,-0x8(%ebp)
  202bee:	73 13                	jae    202c03 <vsnprintf+0x2b3>
  202bf0:	8b 45 dc             	mov    -0x24(%ebp),%eax
  202bf3:	8d 48 57             	lea    0x57(%eax),%ecx
  202bf6:	8b 45 08             	mov    0x8(%ebp),%eax
  202bf9:	8d 50 01             	lea    0x1(%eax),%edx
  202bfc:	89 55 08             	mov    %edx,0x8(%ebp)
  202bff:	89 ca                	mov    %ecx,%edx
  202c01:	88 10                	mov    %dl,(%eax)
  202c03:	83 45 f8 01          	addl   $0x1,-0x8(%ebp)
  202c07:	83 45 e8 01          	addl   $0x1,-0x18(%ebp)
  202c0b:	83 7d e8 07          	cmpl   $0x7,-0x18(%ebp)
  202c0f:	0f 8e 60 ff ff ff    	jle    202b75 <vsnprintf+0x225>
  202c15:	83 7d e4 00          	cmpl   $0x0,-0x1c(%ebp)
  202c19:	75 60                	jne    202c7b <vsnprintf+0x32b>
  202c1b:	8b 45 0c             	mov    0xc(%ebp),%eax
  202c1e:	83 e8 01             	sub    $0x1,%eax
  202c21:	39 45 f8             	cmp    %eax,-0x8(%ebp)
  202c24:	73 0c                	jae    202c32 <vsnprintf+0x2e2>
  202c26:	8b 45 08             	mov    0x8(%ebp),%eax
  202c29:	8d 50 01             	lea    0x1(%eax),%edx
  202c2c:	89 55 08             	mov    %edx,0x8(%ebp)
  202c2f:	c6 00 30             	movb   $0x30,(%eax)
  202c32:	83 45 f8 01          	addl   $0x1,-0x8(%ebp)
  202c36:	eb 43                	jmp    202c7b <vsnprintf+0x32b>
  202c38:	8b 45 0c             	mov    0xc(%ebp),%eax
  202c3b:	83 e8 01             	sub    $0x1,%eax
  202c3e:	39 45 f8             	cmp    %eax,-0x8(%ebp)
  202c41:	73 0c                	jae    202c4f <vsnprintf+0x2ff>
  202c43:	8b 45 08             	mov    0x8(%ebp),%eax
  202c46:	8d 50 01             	lea    0x1(%eax),%edx
  202c49:	89 55 08             	mov    %edx,0x8(%ebp)
  202c4c:	c6 00 25             	movb   $0x25,(%eax)
  202c4f:	83 45 f8 01          	addl   $0x1,-0x8(%ebp)
  202c53:	8b 45 0c             	mov    0xc(%ebp),%eax
  202c56:	83 e8 01             	sub    $0x1,%eax
  202c59:	39 45 f8             	cmp    %eax,-0x8(%ebp)
  202c5c:	73 17                	jae    202c75 <vsnprintf+0x325>
  202c5e:	8b 55 10             	mov    0x10(%ebp),%edx
  202c61:	8b 45 fc             	mov    -0x4(%ebp),%eax
  202c64:	8d 0c 02             	lea    (%edx,%eax,1),%ecx
  202c67:	8b 45 08             	mov    0x8(%ebp),%eax
  202c6a:	8d 50 01             	lea    0x1(%eax),%edx
  202c6d:	89 55 08             	mov    %edx,0x8(%ebp)
  202c70:	0f b6 11             	movzbl (%ecx),%edx
  202c73:	88 10                	mov    %dl,(%eax)
  202c75:	83 45 f8 01          	addl   $0x1,-0x8(%ebp)
  202c79:	eb 29                	jmp    202ca4 <vsnprintf+0x354>
  202c7b:	90                   	nop
  202c7c:	eb 26                	jmp    202ca4 <vsnprintf+0x354>
  202c7e:	8b 45 0c             	mov    0xc(%ebp),%eax
  202c81:	83 e8 01             	sub    $0x1,%eax
  202c84:	39 45 f8             	cmp    %eax,-0x8(%ebp)
  202c87:	73 17                	jae    202ca0 <vsnprintf+0x350>
  202c89:	8b 55 10             	mov    0x10(%ebp),%edx
  202c8c:	8b 45 fc             	mov    -0x4(%ebp),%eax
  202c8f:	8d 0c 02             	lea    (%edx,%eax,1),%ecx
  202c92:	8b 45 08             	mov    0x8(%ebp),%eax
  202c95:	8d 50 01             	lea    0x1(%eax),%edx
  202c98:	89 55 08             	mov    %edx,0x8(%ebp)
  202c9b:	0f b6 11             	movzbl (%ecx),%edx
  202c9e:	88 10                	mov    %dl,(%eax)
  202ca0:	83 45 f8 01          	addl   $0x1,-0x8(%ebp)
  202ca4:	83 45 fc 01          	addl   $0x1,-0x4(%ebp)
  202ca8:	8b 55 10             	mov    0x10(%ebp),%edx
  202cab:	8b 45 fc             	mov    -0x4(%ebp),%eax
  202cae:	01 d0                	add    %edx,%eax
  202cb0:	0f b6 00             	movzbl (%eax),%eax
  202cb3:	84 c0                	test   %al,%al
  202cb5:	0f 85 c4 fc ff ff    	jne    20297f <vsnprintf+0x2f>
  202cbb:	8b 45 08             	mov    0x8(%ebp),%eax
  202cbe:	c6 00 00             	movb   $0x0,(%eax)
  202cc1:	8b 45 f8             	mov    -0x8(%ebp),%eax
  202cc4:	c9                   	leave
  202cc5:	c3                   	ret

00202cc6 <snprintf>:
  202cc6:	55                   	push   %ebp
  202cc7:	89 e5                	mov    %esp,%ebp
  202cc9:	83 ec 10             	sub    $0x10,%esp
  202ccc:	8d 45 14             	lea    0x14(%ebp),%eax
  202ccf:	89 45 fc             	mov    %eax,-0x4(%ebp)
  202cd2:	ff 75 fc             	push   -0x4(%ebp)
  202cd5:	ff 75 10             	push   0x10(%ebp)
  202cd8:	ff 75 0c             	push   0xc(%ebp)
  202cdb:	ff 75 08             	push   0x8(%ebp)
  202cde:	e8 6d fc ff ff       	call   202950 <vsnprintf>
  202ce3:	83 c4 10             	add    $0x10,%esp
  202ce6:	89 45 0c             	mov    %eax,0xc(%ebp)
  202ce9:	8b 45 0c             	mov    0xc(%ebp),%eax
  202cec:	c9                   	leave
  202ced:	c3                   	ret

00202cee <display_bits>:
  202cee:	55                   	push   %ebp
  202cef:	89 e5                	mov    %esp,%ebp
  202cf1:	53                   	push   %ebx
  202cf2:	83 ec 24             	sub    $0x24,%esp
  202cf5:	8b 4d 08             	mov    0x8(%ebp),%ecx
  202cf8:	8b 55 0c             	mov    0xc(%ebp),%edx
  202cfb:	8b 45 10             	mov    0x10(%ebp),%eax
  202cfe:	88 4d e4             	mov    %cl,-0x1c(%ebp)
  202d01:	88 55 e0             	mov    %dl,-0x20(%ebp)
  202d04:	88 45 dc             	mov    %al,-0x24(%ebp)
  202d07:	c7 45 f4 1f 00 00 00 	movl   $0x1f,-0xc(%ebp)
  202d0e:	eb 52                	jmp    202d62 <display_bits+0x74>
  202d10:	8b 45 f4             	mov    -0xc(%ebp),%eax
  202d13:	ba 01 00 00 00       	mov    $0x1,%edx
  202d18:	89 c1                	mov    %eax,%ecx
  202d1a:	d3 e2                	shl    %cl,%edx
  202d1c:	89 d0                	mov    %edx,%eax
  202d1e:	23 45 14             	and    0x14(%ebp),%eax
  202d21:	89 45 f0             	mov    %eax,-0x10(%ebp)
  202d24:	83 7d f0 00          	cmpl   $0x0,-0x10(%ebp)
  202d28:	74 07                	je     202d31 <display_bits+0x43>
  202d2a:	b8 db ff ff ff       	mov    $0xffffffdb,%eax
  202d2f:	eb 05                	jmp    202d36 <display_bits+0x48>
  202d31:	b8 b1 ff ff ff       	mov    $0xffffffb1,%eax
  202d36:	88 45 ef             	mov    %al,-0x11(%ebp)
  202d39:	0f b6 5d ef          	movzbl -0x11(%ebp),%ebx
  202d3d:	0f b6 4d dc          	movzbl -0x24(%ebp),%ecx
  202d41:	0f b6 45 e0          	movzbl -0x20(%ebp),%eax
  202d45:	8d 50 01             	lea    0x1(%eax),%edx
  202d48:	88 55 e0             	mov    %dl,-0x20(%ebp)
  202d4b:	0f b6 d0             	movzbl %al,%edx
  202d4e:	0f b6 45 e4          	movzbl -0x1c(%ebp),%eax
  202d52:	53                   	push   %ebx
  202d53:	51                   	push   %ecx
  202d54:	52                   	push   %edx
  202d55:	50                   	push   %eax
  202d56:	e8 cb e6 ff ff       	call   201426 <sos_x86_videomem_putchar>
  202d5b:	83 c4 10             	add    $0x10,%esp
  202d5e:	83 6d f4 01          	subl   $0x1,-0xc(%ebp)
  202d62:	83 7d f4 00          	cmpl   $0x0,-0xc(%ebp)
  202d66:	79 a8                	jns    202d10 <display_bits+0x22>
  202d68:	90                   	nop
  202d69:	90                   	nop
  202d6a:	8b 5d fc             	mov    -0x4(%ebp),%ebx
  202d6d:	c9                   	leave
  202d6e:	c3                   	ret

00202d6f <clk_it>:
  202d6f:	55                   	push   %ebp
  202d70:	89 e5                	mov    %esp,%ebp
  202d72:	83 ec 08             	sub    $0x8,%esp
  202d75:	a1 c0 98 20 00       	mov    0x2098c0,%eax
  202d7a:	50                   	push   %eax
  202d7b:	6a 1a                	push   $0x1a
  202d7d:	6a 30                	push   $0x30
  202d7f:	6a 00                	push   $0x0
  202d81:	e8 68 ff ff ff       	call   202cee <display_bits>
  202d86:	83 c4 10             	add    $0x10,%esp
  202d89:	a1 c0 98 20 00       	mov    0x2098c0,%eax
  202d8e:	83 c0 01             	add    $0x1,%eax
  202d91:	a3 c0 98 20 00       	mov    %eax,0x2098c0
  202d96:	90                   	nop
  202d97:	c9                   	leave
  202d98:	c3                   	ret

00202d99 <divide_ex>:
  202d99:	55                   	push   %ebp
  202d9a:	89 e5                	mov    %esp,%ebp
  202d9c:	83 ec 08             	sub    $0x8,%esp
  202d9f:	a1 c4 98 20 00       	mov    0x2098c4,%eax
  202da4:	50                   	push   %eax
  202da5:	6a 1c                	push   $0x1c
  202da7:	6a 00                	push   $0x0
  202da9:	6a 00                	push   $0x0
  202dab:	e8 3e ff ff ff       	call   202cee <display_bits>
  202db0:	83 c4 10             	add    $0x10,%esp
  202db3:	a1 c4 98 20 00       	mov    0x2098c4,%eax
  202db8:	83 c0 01             	add    $0x1,%eax
  202dbb:	a3 c4 98 20 00       	mov    %eax,0x2098c4
  202dc0:	90                   	nop
  202dc1:	c9                   	leave
  202dc2:	c3                   	ret

00202dc3 <sos_main>:
  202dc3:	55                   	push   %ebp
  202dc4:	89 e5                	mov    %esp,%ebp
  202dc6:	83 ec 18             	sub    $0x18,%esp
  202dc9:	c7 45 f4 01 00 00 00 	movl   $0x1,-0xc(%ebp)
  202dd0:	e8 3b e2 ff ff       	call   201010 <sos_bochs_setup>
  202dd5:	e8 5b e5 ff ff       	call   201335 <sos_x86_videomem_setup>
  202dda:	83 ec 0c             	sub    $0xc,%esp
  202ddd:	6a 10                	push   $0x10
  202ddf:	e8 71 e5 ff ff       	call   201355 <sos_x86_videomem_cls>
  202de4:	83 c4 10             	add    $0x10,%esp
  202de7:	83 ec 0c             	sub    $0xc,%esp
  202dea:	68 40 41 20 00       	push   $0x204140
  202def:	e8 26 e2 ff ff       	call   20101a <sos_bochs_putstring>
  202df4:	83 c4 10             	add    $0x10,%esp
  202df7:	e8 84 f4 ff ff       	call   202280 <sos_gdt_setup>
  202dfc:	e8 28 f6 ff ff       	call   202429 <sos_idt_setup>
  202e01:	e8 aa f3 ff ff       	call   2021b0 <sos_install_dbl_fault_exceptions>
  202e06:	89 45 f0             	mov    %eax,-0x10(%ebp)
  202e09:	e8 eb f7 ff ff       	call   2025f9 <sos_irq_setup>
  202e0e:	89 45 f0             	mov    %eax,-0x10(%ebp)
  202e11:	83 ec 0c             	sub    $0xc,%esp
  202e14:	6a 14                	push   $0x14
  202e16:	e8 99 f4 ff ff       	call   2022b4 <sos_i8254_set_frequency>
  202e1b:	83 c4 10             	add    $0x10,%esp
  202e1e:	89 45 f0             	mov    %eax,-0x10(%ebp)
  202e21:	83 ec 08             	sub    $0x8,%esp
  202e24:	68 6f 2d 20 00       	push   $0x202d6f
  202e29:	6a 00                	push   $0x0
  202e2b:	e8 d6 f7 ff ff       	call   202606 <sos_irq_set_routine>
  202e30:	83 c4 10             	add    $0x10,%esp
  202e33:	89 45 f0             	mov    %eax,-0x10(%ebp)
  202e36:	83 ec 08             	sub    $0x8,%esp
  202e39:	68 99 2d 20 00       	push   $0x202d99
  202e3e:	6a 00                	push   $0x0
  202e40:	e8 88 f3 ff ff       	call   2021cd <sos_exception_set_routine>
  202e45:	83 c4 10             	add    $0x10,%esp
  202e48:	89 45 f0             	mov    %eax,-0x10(%ebp)
  202e4b:	83 ec 04             	sub    $0x4,%esp
  202e4e:	6a 00                	push   $0x0
  202e50:	8d 45 e8             	lea    -0x18(%ebp),%eax
  202e53:	50                   	push   %eax
  202e54:	6a 00                	push   $0x0
  202e56:	e8 31 f7 ff ff       	call   20258c <sos_idt_get_wrapper>
  202e5b:	83 c4 10             	add    $0x10,%esp
  202e5e:	8b 55 e8             	mov    -0x18(%ebp),%edx
  202e61:	8b 45 f4             	mov    -0xc(%ebp),%eax
  202e64:	8d 48 01             	lea    0x1(%eax),%ecx
  202e67:	89 4d f4             	mov    %ecx,-0xc(%ebp)
  202e6a:	0f b6 c0             	movzbl %al,%eax
  202e6d:	83 ec 0c             	sub    $0xc,%esp
  202e70:	52                   	push   %edx
  202e71:	68 54 41 20 00       	push   $0x204154
  202e76:	6a 1e                	push   $0x1e
  202e78:	6a 00                	push   $0x0
  202e7a:	50                   	push   %eax
  202e7b:	e8 17 e6 ff ff       	call   201497 <sos_x86_videomem_printf>
  202e80:	83 c4 20             	add    $0x20,%esp
  202e83:	83 ec 0c             	sub    $0xc,%esp
  202e86:	6a 00                	push   $0x0
  202e88:	e8 c4 f3 ff ff       	call   202251 <sos_exception_get_routine>
  202e8d:	83 c4 10             	add    $0x10,%esp
  202e90:	8b 55 f4             	mov    -0xc(%ebp),%edx
  202e93:	8d 4a 01             	lea    0x1(%edx),%ecx
  202e96:	89 4d f4             	mov    %ecx,-0xc(%ebp)
  202e99:	0f b6 d2             	movzbl %dl,%edx
  202e9c:	83 ec 0c             	sub    $0xc,%esp
  202e9f:	50                   	push   %eax
  202ea0:	68 78 41 20 00       	push   $0x204178
  202ea5:	6a 1e                	push   $0x1e
  202ea7:	6a 00                	push   $0x0
  202ea9:	52                   	push   %edx
  202eaa:	e8 e8 e5 ff ff       	call   201497 <sos_x86_videomem_printf>
  202eaf:	83 c4 20             	add    $0x20,%esp
  202eb2:	8b 45 f4             	mov    -0xc(%ebp),%eax
  202eb5:	8d 50 01             	lea    0x1(%eax),%edx
  202eb8:	89 55 f4             	mov    %edx,-0xc(%ebp)
  202ebb:	0f b6 c0             	movzbl %al,%eax
  202ebe:	83 ec 0c             	sub    $0xc,%esp
  202ec1:	68 99 2d 20 00       	push   $0x202d99
  202ec6:	68 9c 41 20 00       	push   $0x20419c
  202ecb:	6a 1e                	push   $0x1e
  202ecd:	6a 00                	push   $0x0
  202ecf:	50                   	push   %eax
  202ed0:	e8 c2 e5 ff ff       	call   201497 <sos_x86_videomem_printf>
  202ed5:	83 c4 20             	add    $0x20,%esp
  202ed8:	fb                   	sti
  202ed9:	c7 45 ec 0a 00 00 00 	movl   $0xa,-0x14(%ebp)
  202ee0:	83 ec 08             	sub    $0x8,%esp
  202ee3:	ff 75 ec             	push   -0x14(%ebp)
  202ee6:	68 c0 41 20 00       	push   $0x2041c0
  202eeb:	e8 08 e4 ff ff       	call   2012f8 <sos_bochs_printf>
  202ef0:	83 c4 10             	add    $0x10,%esp
  202ef3:	8b 45 f4             	mov    -0xc(%ebp),%eax
  202ef6:	0f b6 c0             	movzbl %al,%eax
  202ef9:	83 ec 0c             	sub    $0xc,%esp
  202efc:	ff 75 ec             	push   -0x14(%ebp)
  202eff:	68 cf 41 20 00       	push   $0x2041cf
  202f04:	6a 1e                	push   $0x1e
  202f06:	6a 00                	push   $0x0
  202f08:	50                   	push   %eax
  202f09:	e8 89 e5 ff ff       	call   201497 <sos_x86_videomem_printf>
  202f0e:	83 c4 20             	add    $0x20,%esp
  202f11:	b8 01 00 00 00       	mov    $0x1,%eax
  202f16:	ba 00 00 00 00       	mov    $0x0,%edx
  202f1b:	f7 75 f8             	divl   -0x8(%ebp)
  202f1e:	89 45 f8             	mov    %eax,-0x8(%ebp)
  202f21:	90                   	nop
  202f22:	eb bc                	jmp    202ee0 <sos_main+0x11d>
